; generated by Component: ARM Compiler 5.06 update 6 (build 750) Tool: ArmCC [4d3637]
; commandline ArmCC [--c99 --list --split_sections --debug -c --asm --interleave -o.\flash\obj\app_outfirerobottwowork.o --asm_dir=.\Flash\List\ --list_dir=.\Flash\List\ --depend=.\flash\obj\app_outfirerobottwowork.d --cpu=Cortex-M3 --apcs=interwork -O1 --diag_suppress=9931,870 -I..\..\Libraries\CMSIS\Device\ST\STM32F10x\Include -I..\..\Libraries\STM32F10x_StdPeriph_Driver\inc -I..\..\User\bsp -I..\..\User\bsp\inc -I..\..\User -I..\..\Libraries\CMSIS\Include -I..\..\FreeRTOS\include -I..\..\FreeRTOS\portable\RVDS\ARM_CM3 -I..\..\User\User_App -I..\..\User\User_Driver -I..\..\User\Font_And_Bmp -I..\..\User\User_GUI -I..\..\User\Util -I.\RTE\_FreeRTOS_STM32F1 -I"D:\Keil MDK\ARM\PACK\ARM\CMSIS\5.5.1\CMSIS\Core\Include" -I"D:\Keil MDK\ARM\PACK\Keil\STM32F1xx_DFP\2.3.0\Device\Include" -D__MICROLIB -D__UVISION_VERSION=528 -D_RTE_ -DSTM32F10X_HD -DUSE_STDPERIPH_DRIVER --omf_browse=.\flash\obj\app_outfirerobottwowork.crf ..\..\User\User_App\app_outfireRobotTwoWork.c]
                          THUMB

                          AREA ||i.app_findEighthFire||, CODE, READONLY, ALIGN=2

                  app_findEighthFire PROC
;;;26     
;;;27     void app_findEighthFire(void){
000000  e92d5ff0          PUSH     {r4-r12,lr}
;;;28     	if(outfireRobotState.fireArray[EIGHTH_FIRE] == 1){
000004  48fb              LDR      r0,|L1.1012|
000006  2501              MOVS     r5,#1
;;;29     		switch(outfireRobotState.workStep){
000008  2303              MOVS     r3,#3
00000a  78c1              LDRB     r1,[r0,#3]
00000c  7c44              LDRB     r4,[r0,#0x11]         ;28  ; outfireRobotState
;;;30     			case 0:{
;;;31     				calibrationFinish = app_calibration(LEFT);
;;;32     				if(calibrationFinish == CALIBRATION_FINISHED){
;;;33     					outfireRobotState.workStep++;
00000e  1c48              ADDS     r0,r1,#1
000010  4ef9              LDR      r6,|L1.1016|
;;;34     				}break;
;;;35     			}
;;;36     			case 1:{
;;;37     				calibrationGostraight(LEFT);
;;;38     				if(SRF_04_Data1.getDistance <= 17 && SRF_04_Data2.getDistance <= 17){
000012  4ffa              LDR      r7,|L1.1020|
000014  f8df83e8          LDR      r8,|L1.1024|
;;;39     					outfireRobotState.workStep++;
;;;40     				}break;
;;;41     			}
;;;42     			case 2:{
;;;43     				outfireRobotState.moveWays = REVERSE_LEFT_TURN_90;
000018  220e              MOVS     r2,#0xe
00001a  f04f0c00          MOV      r12,#0                ;28
00001e  f04f0a08          MOV      r10,#8                ;29
;;;44     				outfireRobotState.workStep++;
;;;45     				break;
;;;46     			}
;;;47     			case 3:{
;;;48     				outfireRobotState.moveWays = STOP;
;;;49     				vTaskDelay(200);
;;;50     				outfireRobotState.workStep++;
;;;51     				break;
;;;52     			}
;;;53     			case 4:{
;;;54     				calibrationFinish = app_calibration(RIGHT);
;;;55     				if(calibrationFinish == CALIBRATION_FINISHED){
;;;56     					outfireRobotState.moveWays = OTHER;
000022  f04f0914          MOV      r9,#0x14
000026  b2c0              UXTB     r0,r0                 ;33
000028  2c01              CMP      r4,#1                 ;28
00002a  d011              BEQ      |L1.80|
;;;57     					outfireRobotState.workStep++;
;;;58     				}break;
;;;59     			}
;;;60     			case 5:{
;;;61     				calibrationGostraight(RIGHT);
;;;62     				if(SRF_04_Data1.getDistance <=53 && SRF_04_Data2.getDistance <=53){
;;;63     					outfireRobotState.workStep++;
;;;64     				}break;
;;;65     			}
;;;66     			case 6:{
;;;67     				outfireRobotState.moveWays = STOP;
;;;68     				outfireRobotState.workStep++;
;;;69     				break;
;;;70     			}
;;;71     			case 7:{
;;;72     				outfireRobotState.moveWays = REVERSE_LEFT_TURN_90;
;;;73     				outfireRobotState.workStep++;
;;;74     				break;
;;;75     			}
;;;76     			case 8:{
;;;77     				outfireRobotState.moveWays = STOP;
;;;78     				outfireRobotState.workStep++;
;;;79     				break;
;;;80     			}
;;;81     			case 9:{
;;;82     				calibrationGostraight(LEFT);
;;;83     				if(SRF_04_Data4.getDistance <50){
;;;84     					outfireRobotState.workStep++;
;;;85     				}break;
;;;86     			}
;;;87     			case 10:{
;;;88     				app_LeftWheel(FRONT,parameter[NAME_GO_STRAIGHT__LEFT_RATE]);
;;;89     				app_RightWheel(FRONT,parameter[NAME_GO_STRAIGHT__RIGHT_RATE]);
;;;90     				vTaskDelay(1000);
;;;91     				app_LeftWheel(FRONT,parameter[NAME_SET_ZERO__LEFT_RATE]);
;;;92     				app_RightWheel(FRONT,parameter[NAME_SET_ZERO__RIGHT_RATE]);
;;;93     				outfireRobotState.moveWays = FRONT_TURN_RIGHT_90;
;;;94     				outfireRobotState.workStep++;
;;;95     				break;
;;;96     			}
;;;97     			case 11:{
;;;98     				outfireRobotState.moveWays = FRONT_TURN_LEFT_90;
;;;99     				outfireRobotState.workStep++;
;;;100    				break;
;;;101    			}
;;;102    			case 12:{
;;;103    				outfireRobotState.moveWays = STOP;
;;;104    				outfireRobotState.workStep++;
;;;105    				break;
;;;106    			}
;;;107    			case 13:{
;;;108    				outfireRobotState.moveWays = GO_STRAIGHT;
;;;109    				calibrationGostraight(RIGHT);
;;;110    				if(SRF_04_Data1.getDistance <30 && SRF_04_Data2.getDistance <30){
;;;111    					outfireRobotState.moveWays = STOP;
;;;112    					outfireRobotState.workStep++;
;;;113    				}break;
;;;114    			}
;;;115    			case 14:{
;;;116    				outfireRobotState.moveWays = REVERSE_LEFT_TURN_45;
;;;117    				outfireRobotState.workStep++;
;;;118    				break;
;;;119    			}
;;;120    			case 15:{
;;;121    				calibrationFinish = app_findFire();
;;;122    				outfireRobotState.moveWays = OTHER;
;;;123    				if(calibrationFinish == CALIBRATION_FINISHED && SRF_04_Data1.getDistance <20 && SRF_04_Data2.getDistance <20){
;;;124    					outfireRobotState.moveWays = STOP;
;;;125    					outfireRobotState.workStep++;
;;;126    				}break;
;;;127    			}
;;;128    			case 16:{
;;;129    				app_fan();
;;;130    				calibrationFinish = checkFire();
;;;131    				if(calibrationFinish == CALIBRATION_FINISHED){
;;;132    					outfireRobotState.workStep++;
;;;133    				}break;
;;;134    			}
;;;135    			case 17:{
;;;136    				app_goBack(600,NO_TURN);
;;;137    				outfireRobotState.workStep++;
;;;138    				break;
;;;139    			}
;;;140    			case 18:{
;;;141    				outfireRobotState.moveWays = REVERSE_RIGHT_TURN_135;
;;;142    				outfireRobotState.workStep++;
;;;143    				break;
;;;144    			}
;;;145    			case 19:{
;;;146    				outfireRobotState.moveWays = STOP;
;;;147    				vTaskDelay(200);
;;;148    				outfireRobotState.workStep++;
;;;149    				break;
;;;150    			}
;;;151    			case 20:{
;;;152    				outfireRobotState.moveWays = OTHER;
;;;153    				calibrationFinish = app_calibration(LEFT);
;;;154    				if(calibrationFinish == CALIBRATION_FINISHED){
;;;155    					outfireRobotState.workStep++;
;;;156    				}break;
;;;157    			}
;;;158    			case 21:{
;;;159    				outfireRobotState.moveWays = STOP;
;;;160    				outfireRobotState.workStep++;
;;;161    				break;
;;;162    			}
;;;163    			case 22:{
;;;164    				outfireRobotState.moveWays = OTHER;
;;;165    				outfireRobotState.workStep++;
;;;166    				break;
;;;167    			}
;;;168    			case 23:{
;;;169    				outfireRobotState.moveWays = STOP;
;;;170    				outfireRobotState.workStep = 99;
;;;171    				break;
;;;172    			}
;;;173    			case 99:{
;;;174    				if(outfireRobotState.returnFlag[EIGHTH_FIRE] == 1){
;;;175    					outfireRobotState.robotTaskstep = RETURN;
;;;176    				}else{
;;;177    					outfireRobotState.robotTaskstep = SENVENTH_FIRE;
;;;178    				}
;;;179    				outfireRobotState.moveWays = OTHER;
;;;180    				outfireRobotState.workStep = 0;
;;;181    				break;
;;;182    			}
;;;183    		}
;;;184    	}
;;;185    	else{
;;;186    		if(outfireRobotState.fireArray[SENVENTH_FIRE] == 1){//测试完成
00002c  4cf1              LDR      r4,|L1.1012|
;;;187    			switch(outfireRobotState.workStep){
;;;188    				case 0:{
;;;189    					calibrationFinish = app_calibration(LEFT);
;;;190    					if(calibrationFinish == CALIBRATION_FINISHED){
;;;191    						outfireRobotState.workStep++;
;;;192    					}break;
;;;193    				}
;;;194    				case 1:{
;;;195    					calibrationGostraight(LEFT);
;;;196    					if(SRF_04_Data1.getDistance <= 17 && SRF_04_Data2.getDistance <= 17){
;;;197    						outfireRobotState.workStep++;
;;;198    					}break;
;;;199    				}
;;;200    				case 2:{
;;;201    					outfireRobotState.moveWays = REVERSE_LEFT_TURN_90;
;;;202    					outfireRobotState.workStep++;
;;;203    					break;
;;;204    				}
;;;205    				case 3:{
;;;206    					outfireRobotState.moveWays = STOP;
;;;207    					vTaskDelay(200);
;;;208    					outfireRobotState.workStep++;
;;;209    					break;
;;;210    				}
;;;211    				case 4:{
;;;212    					calibrationFinish = app_calibration(RIGHT);
;;;213    					if(calibrationFinish == CALIBRATION_FINISHED){
;;;214    						outfireRobotState.moveWays = OTHER;
;;;215    						outfireRobotState.workStep++;
;;;216    					}break;
;;;217    				}
;;;218    				case 5:{
;;;219    					calibrationGostraight(RIGHT);
;;;220    					if(SRF_04_Data1.getDistance <=53 && SRF_04_Data2.getDistance <=53){
;;;221    						outfireRobotState.workStep++;
;;;222    					}break;
;;;223    				}
;;;224    				case 6:{
;;;225    					outfireRobotState.moveWays = STOP;
;;;226    					outfireRobotState.workStep++;
;;;227    					break;
;;;228    				}
;;;229    				case 7:{
;;;230    					outfireRobotState.moveWays = REVERSE_LEFT_TURN_90;
;;;231    					outfireRobotState.workStep++;
;;;232    					break;
;;;233    				}
;;;234    				case 8:{
;;;235    					outfireRobotState.moveWays = STOP;
;;;236    					outfireRobotState.workStep++;
;;;237    					break;
;;;238    				}
;;;239    				case 9:{
;;;240    					calibrationGostraight(LEFT);
;;;241    					if(SRF_04_Data4.getDistance <50){
;;;242    						outfireRobotState.workStep++;
;;;243    					}break;
;;;244    				}
;;;245    				case 10:{
;;;246    					outfireRobotState.moveWays = STOP;
;;;247    					outfireRobotState.workStep++;
;;;248    					break;
;;;249    				}
;;;250    				case 11:{
;;;251    					calibrationFinish = app_calibration(LEFT);
;;;252    					if(calibrationFinish == CALIBRATION_FINISHED){
;;;253    						outfireRobotState.workStep++;
;;;254    					}break;
;;;255    				}
;;;256    				case 12:{
;;;257    					outfireRobotState.moveWays = GO_STRAIGHT;
;;;258    					calibrationGostraight(LEFT);
;;;259    					if(SRF_04_Data1.getDistance <30 && SRF_04_Data2.getDistance <30){
;;;260    						outfireRobotState.moveWays = STOP;
;;;261    						outfireRobotState.workStep++;
;;;262    					}break;
;;;263    				}
;;;264    				case 13:{
;;;265    					outfireRobotState.moveWays = REVERSE_RIGHT_TURN_90;
00002e  f04f0b0f          MOV      r11,#0xf
000032  f894e010          LDRB     lr,[r4,#0x10]         ;186  ; outfireRobotState
000036  f1be0f01          CMP      lr,#1                 ;186
00003a  d070              BEQ      |L1.286|
;;;266    					outfireRobotState.workStep++;
;;;267    					break;
;;;268    				}
;;;269    				case 14:{
;;;270    					outfireRobotState.moveWays = STOP;
;;;271    					outfireRobotState.workStep++;
;;;272    					break;
;;;273    				}
;;;274    				case 99:{
;;;275    					outfireRobotState.moveWays = OTHER;
;;;276    					outfireRobotState.robotTaskstep = SENVENTH_FIRE;
;;;277    					outfireRobotState.workStep = 0;
;;;278    					break;
;;;279    				}
;;;280    			}
;;;281    		}
;;;282    		else{
;;;283    			//分岔口
;;;284    			switch(outfireRobotState.workStep){
00003c  2905              CMP      r1,#5
00003e  d06f              BEQ      |L1.288|
000040  dc6f              BGT      |L1.290|
000042  2905              CMP      r1,#5
000044  d22b              BCS      |L1.158|
000046  e8dff001          TBB      [pc,r1]
00004a  f7f6              DCB      0xf7,0xf6
00004c  f5f4f300          DCB      0xf5,0xf4,0xf3,0x00
                  |L1.80|
000050  4ce8              LDR      r4,|L1.1012|
000052  f04f0b09          MOV      r11,#9                ;29
000056  f04f0e0c          MOV      lr,#0xc               ;99
00005a  290c              CMP      r1,#0xc               ;29
00005c  d071              BEQ      |L1.322|
00005e  dc09              BGT      |L1.116|
000060  290c              CMP      r1,#0xc               ;29
000062  d21c              BCS      |L1.158|
000064  e8dff001          TBB      [pc,r1]               ;29
000068  2b354447          DCB      0x2b,0x35,0x44,0x47
00006c  4f5e6e72          DCB      0x4f,0x5e,0x6e,0x72
000070  767b8aa7          DCB      0x76,0x7b,0x8a,0xa7
                  |L1.116|
000074  2913              CMP      r1,#0x13              ;29
000076  d071              BEQ      |L1.348|
000078  dc08              BGT      |L1.140|
00007a  f1a1010d          SUB      r1,r1,#0xd            ;29
00007e  2906              CMP      r1,#6                 ;29
000080  d20d              BCS      |L1.158|
000082  e8dff001          TBB      [pc,r1]               ;29
000086  a0b2              DCB      0xa0,0xb2
000088  b6cadae3          DCB      0xb6,0xca,0xda,0xe3
                  |L1.140|
00008c  2916              CMP      r1,#0x16              ;29
00008e  d072              BEQ      |L1.374|
000090  dc07              BGT      |L1.162|
000092  2914              CMP      r1,#0x14              ;29
000094  d070              BEQ      |L1.376|
000096  2915              CMP      r1,#0x15              ;29
000098  d101              BNE      |L1.158|
00009a  7065              STRB     r5,[r4,#1]            ;159
00009c  70e0              STRB     r0,[r4,#3]            ;160
                  |L1.158|
;;;285    				case 0:{
;;;286    					calibrationFinish = app_calibration(LEFT);
;;;287    					if(calibrationFinish == CALIBRATION_FINISHED){
;;;288    						outfireRobotState.workStep++;
;;;289    					}break;
;;;290    				}
;;;291    				case 1:{
;;;292    					calibrationGostraight(LEFT);
;;;293    					if(SRF_04_Data1.getDistance <= 17 && SRF_04_Data2.getDistance <= 17){
;;;294    						outfireRobotState.workStep++;
;;;295    					}break;
;;;296    				}
;;;297    				case 2:{
;;;298    					outfireRobotState.moveWays = REVERSE_LEFT_TURN_90;
;;;299    					outfireRobotState.workStep++;
;;;300    					break;
;;;301    				}
;;;302    				case 3:{
;;;303    					outfireRobotState.moveWays = STOP;
;;;304    					vTaskDelay(200);
;;;305    					outfireRobotState.workStep++;
;;;306    					break;
;;;307    				}
;;;308    				case 4:{
;;;309    					calibrationFinish = app_calibration(RIGHT);
;;;310    					if(calibrationFinish == CALIBRATION_FINISHED){
;;;311    						outfireRobotState.moveWays = OTHER;
;;;312    						outfireRobotState.workStep++;
;;;313    					}break;
;;;314    				}
;;;315    				case 5:{
;;;316    					calibrationGostraight(RIGHT);
;;;317    					if(SRF_04_Data1.getDistance <=53 && SRF_04_Data2.getDistance <=53){
;;;318    						outfireRobotState.workStep++;
;;;319    					}break;
;;;320    				}
;;;321    				case 6:{
;;;322    					outfireRobotState.moveWays = STOP;
;;;323    					outfireRobotState.workStep++;
;;;324    					break;
;;;325    				}
;;;326    				case 7:{
;;;327    					outfireRobotState.moveWays = REVERSE_RIGHT_TURN_90;
;;;328    					outfireRobotState.workStep++;
;;;329    					break;
;;;330    				}
;;;331    				case 8:{
;;;332    					outfireRobotState.moveWays = STOP;
;;;333    					outfireRobotState.workStep = 99;
;;;334    					break;
;;;335    				}
;;;336    				case 99:{
;;;337    					outfireRobotState.moveWays = OTHER;
;;;338    					outfireRobotState.robotTaskstep = FOURTH_FIRE;
;;;339    					outfireRobotState.workStep = 0;
;;;340    					break;
;;;341    				}
;;;342    			}
;;;343    		}
;;;344    	}
;;;345    }
00009e  e8bd9ff0          POP      {r4-r12,pc}
                  |L1.162|
0000a2  2917              CMP      r1,#0x17              ;29
0000a4  d069              BEQ      |L1.378|
0000a6  2963              CMP      r1,#0x63              ;29
0000a8  d1f9              BNE      |L1.158|
0000aa  7ee0              LDRB     r0,[r4,#0x1b]         ;174  ; outfireRobotState
0000ac  2801              CMP      r0,#1                 ;174
0000ae  d07d              BEQ      |L1.428|
0000b0  2006              MOVS     r0,#6                 ;177
0000b2  71e0              STRB     r0,[r4,#7]            ;177
                  |L1.180|
0000b4  f8849001          STRB     r9,[r4,#1]            ;179
0000b8  f884c003          STRB     r12,[r4,#3]           ;180
0000bc  e7ef              B        |L1.158|
0000be  2001              MOVS     r0,#1                 ;31
0000c0  f7fffffe          BL       app_calibration
0000c4  7030              STRB     r0,[r6,#0]            ;31
0000c6  2800              CMP      r0,#0                 ;32
0000c8  d1e9              BNE      |L1.158|
0000ca  78e0              LDRB     r0,[r4,#3]            ;33  ; outfireRobotState
0000cc  1c40              ADDS     r0,r0,#1              ;33
0000ce  70e0              STRB     r0,[r4,#3]            ;33
0000d0  e7e5              B        |L1.158|
0000d2  2001              MOVS     r0,#1                 ;37
0000d4  f7fffffe          BL       calibrationGostraight
0000d8  48ca              LDR      r0,|L1.1028|
0000da  68b9              LDR      r1,[r7,#8]            ;38  ; SRF_04_Data1
0000dc  4281              CMP      r1,r0                 ;38
0000de  dcde              BGT      |L1.158|
0000e0  f8d81008          LDR      r1,[r8,#8]            ;38  ; SRF_04_Data2
0000e4  4281              CMP      r1,r0                 ;38
0000e6  dcda              BGT      |L1.158|
0000e8  78e0              LDRB     r0,[r4,#3]            ;39  ; outfireRobotState
0000ea  1c40              ADDS     r0,r0,#1              ;39
0000ec  70e0              STRB     r0,[r4,#3]            ;39
                  |L1.238|
0000ee  e7d6              B        |L1.158|
0000f0  7062              STRB     r2,[r4,#1]            ;43
0000f2  70e3              STRB     r3,[r4,#3]            ;44
0000f4  e7d3              B        |L1.158|
0000f6  7065              STRB     r5,[r4,#1]            ;48
0000f8  20c8              MOVS     r0,#0xc8              ;49
0000fa  f7fffffe          BL       vTaskDelay
0000fe  78e0              LDRB     r0,[r4,#3]            ;50  ; outfireRobotState
000100  1c40              ADDS     r0,r0,#1              ;50
000102  70e0              STRB     r0,[r4,#3]            ;50
000104  e7cb              B        |L1.158|
000106  2002              MOVS     r0,#2                 ;54
000108  f7fffffe          BL       app_calibration
00010c  7030              STRB     r0,[r6,#0]            ;54
00010e  2800              CMP      r0,#0                 ;55
000110  d1c5              BNE      |L1.158|
000112  f8849001          STRB     r9,[r4,#1]            ;56
000116  78e0              LDRB     r0,[r4,#3]            ;57  ; outfireRobotState
000118  1c40              ADDS     r0,r0,#1              ;57
00011a  70e0              STRB     r0,[r4,#3]            ;57
                  |L1.284|
00011c  e7bf              B        |L1.158|
                  |L1.286|
00011e  e0b8              B        |L1.658|
                  |L1.288|
000120  e1ae              B        |L1.1152|
                  |L1.290|
000122  e158              B        |L1.982|
000124  2002              MOVS     r0,#2                 ;61
000126  f7fffffe          BL       calibrationGostraight
00012a  48b7              LDR      r0,|L1.1032|
00012c  68b9              LDR      r1,[r7,#8]            ;62  ; SRF_04_Data1
00012e  4281              CMP      r1,r0                 ;62
000130  dcb5              BGT      |L1.158|
000132  f8d81008          LDR      r1,[r8,#8]            ;62  ; SRF_04_Data2
000136  4281              CMP      r1,r0                 ;62
000138  dcb1              BGT      |L1.158|
00013a  78e0              LDRB     r0,[r4,#3]            ;63  ; outfireRobotState
00013c  1c40              ADDS     r0,r0,#1              ;63
00013e  70e0              STRB     r0,[r4,#3]            ;63
                  |L1.320|
000140  e7ad              B        |L1.158|
                  |L1.322|
000142  e03d              B        |L1.448|
000144  7065              STRB     r5,[r4,#1]            ;67
000146  2007              MOVS     r0,#7                 ;68
000148  70e0              STRB     r0,[r4,#3]            ;68
00014a  e7a8              B        |L1.158|
00014c  7062              STRB     r2,[r4,#1]            ;72
00014e  f884a003          STRB     r10,[r4,#3]           ;73
000152  e7a4              B        |L1.158|
000154  7065              STRB     r5,[r4,#1]            ;77
000156  f884b003          STRB     r11,[r4,#3]           ;78
00015a  e7a0              B        |L1.158|
                  |L1.348|
00015c  e07a              B        |L1.596|
00015e  2001              MOVS     r0,#1                 ;82
000160  f7fffffe          BL       calibrationGostraight
000164  48a9              LDR      r0,|L1.1036|
000166  6881              LDR      r1,[r0,#8]            ;83  ; SRF_04_Data4
000168  48a9              LDR      r0,|L1.1040|
00016a  4281              CMP      r1,r0                 ;83
00016c  da97              BGE      |L1.158|
00016e  78e0              LDRB     r0,[r4,#3]            ;84  ; outfireRobotState
000170  1c40              ADDS     r0,r0,#1              ;84
000172  70e0              STRB     r0,[r4,#3]            ;84
000174  e793              B        |L1.158|
                  |L1.374|
000176  e081              B        |L1.636|
                  |L1.376|
000178  e074              B        |L1.612|
                  |L1.378|
00017a  e083              B        |L1.644|
00017c  4da5              LDR      r5,|L1.1044|
00017e  2001              MOVS     r0,#1                 ;88
000180  6e69              LDR      r1,[r5,#0x64]         ;88  ; parameter
000182  f7fffffe          BL       app_LeftWheel
000186  2001              MOVS     r0,#1                 ;89
000188  6ea9              LDR      r1,[r5,#0x68]         ;89  ; parameter
00018a  f7fffffe          BL       app_RightWheel
00018e  f44f707a          MOV      r0,#0x3e8             ;90
000192  f7fffffe          BL       vTaskDelay
000196  2001              MOVS     r0,#1                 ;91
000198  6ee9              LDR      r1,[r5,#0x6c]         ;91  ; parameter
00019a  f7fffffe          BL       app_LeftWheel
00019e  2001              MOVS     r0,#1                 ;92
0001a0  6f29              LDR      r1,[r5,#0x70]         ;92  ; parameter
0001a2  f7fffffe          BL       app_RightWheel
0001a6  2004              MOVS     r0,#4                 ;93
0001a8  7060              STRB     r0,[r4,#1]            ;93
0001aa  e000              B        |L1.430|
                  |L1.428|
0001ac  e06e              B        |L1.652|
                  |L1.430|
0001ae  78e0              LDRB     r0,[r4,#3]            ;94  ; outfireRobotState
0001b0  1c40              ADDS     r0,r0,#1              ;94
0001b2  70e0              STRB     r0,[r4,#3]            ;94
                  |L1.436|
0001b4  e773              B        |L1.158|
0001b6  2002              MOVS     r0,#2                 ;98
0001b8  7060              STRB     r0,[r4,#1]            ;98
0001ba  f884e003          STRB     lr,[r4,#3]            ;99
0001be  e76e              B        |L1.158|
                  |L1.448|
0001c0  7065              STRB     r5,[r4,#1]            ;103
0001c2  70e0              STRB     r0,[r4,#3]            ;104
                  |L1.452|
0001c4  e76b              B        |L1.158|
0001c6  2015              MOVS     r0,#0x15              ;108
0001c8  7060              STRB     r0,[r4,#1]            ;108
0001ca  2002              MOVS     r0,#2                 ;109
0001cc  f7fffffe          BL       calibrationGostraight
0001d0  4891              LDR      r0,|L1.1048|
0001d2  68b9              LDR      r1,[r7,#8]            ;110  ; SRF_04_Data1
0001d4  4281              CMP      r1,r0                 ;110
0001d6  da8a              BGE      |L1.238|
0001d8  f8d81008          LDR      r1,[r8,#8]            ;110  ; SRF_04_Data2
0001dc  4281              CMP      r1,r0                 ;110
0001de  da86              BGE      |L1.238|
0001e0  7065              STRB     r5,[r4,#1]            ;111
0001e2  78e0              LDRB     r0,[r4,#3]            ;112  ; outfireRobotState
0001e4  1c40              ADDS     r0,r0,#1              ;112
0001e6  70e0              STRB     r0,[r4,#3]            ;112
                  |L1.488|
0001e8  e759              B        |L1.158|
0001ea  f884e001          STRB     lr,[r4,#1]            ;116
0001ee  70e0              STRB     r0,[r4,#3]            ;117
0001f0  e755              B        |L1.158|
0001f2  f7fffffe          BL       app_findFire
0001f6  7030              STRB     r0,[r6,#0]            ;121
0001f8  f8849001          STRB     r9,[r4,#1]            ;122
0001fc  2800              CMP      r0,#0                 ;123
0001fe  d18d              BNE      |L1.284|
000200  4886              LDR      r0,|L1.1052|
000202  68b9              LDR      r1,[r7,#8]            ;123  ; SRF_04_Data1
000204  4281              CMP      r1,r0                 ;123
000206  da89              BGE      |L1.284|
000208  f8d81008          LDR      r1,[r8,#8]            ;123  ; SRF_04_Data2
00020c  4281              CMP      r1,r0                 ;123
00020e  da85              BGE      |L1.284|
000210  7065              STRB     r5,[r4,#1]            ;124
000212  78e0              LDRB     r0,[r4,#3]            ;125  ; outfireRobotState
000214  1c40              ADDS     r0,r0,#1              ;125
000216  70e0              STRB     r0,[r4,#3]            ;125
                  |L1.536|
000218  e741              B        |L1.158|
00021a  f7fffffe          BL       app_fan
00021e  f7fffffe          BL       checkFire
000222  7030              STRB     r0,[r6,#0]            ;130
000224  2800              CMP      r0,#0                 ;131
000226  d18b              BNE      |L1.320|
000228  78e0              LDRB     r0,[r4,#3]            ;132  ; outfireRobotState
00022a  1c40              ADDS     r0,r0,#1              ;132
00022c  70e0              STRB     r0,[r4,#3]            ;132
                  |L1.558|
00022e  e736              B        |L1.158|
000230  e11a              B        |L1.1128|
000232  e111              B        |L1.1112|
000234  e10d              B        |L1.1106|
000236  e0fd              B        |L1.1076|
000238  e0f2              B        |L1.1056|
00023a  2103              MOVS     r1,#3                 ;136
00023c  f44f7016          MOV      r0,#0x258             ;136
000240  f7fffffe          BL       app_goBack
000244  78e0              LDRB     r0,[r4,#3]            ;137  ; outfireRobotState
000246  1c40              ADDS     r0,r0,#1              ;137
000248  70e0              STRB     r0,[r4,#3]            ;137
                  |L1.586|
00024a  e728              B        |L1.158|
00024c  2111              MOVS     r1,#0x11              ;141
00024e  7061              STRB     r1,[r4,#1]            ;141
000250  70e0              STRB     r0,[r4,#3]            ;142
000252  e724              B        |L1.158|
                  |L1.596|
000254  7065              STRB     r5,[r4,#1]            ;146
000256  20c8              MOVS     r0,#0xc8              ;147
000258  f7fffffe          BL       vTaskDelay
00025c  78e0              LDRB     r0,[r4,#3]            ;148  ; outfireRobotState
00025e  1c40              ADDS     r0,r0,#1              ;148
000260  70e0              STRB     r0,[r4,#3]            ;148
                  |L1.610|
000262  e71c              B        |L1.158|
                  |L1.612|
000264  f8849001          STRB     r9,[r4,#1]            ;152
000268  2001              MOVS     r0,#1                 ;153
00026a  f7fffffe          BL       app_calibration
00026e  7030              STRB     r0,[r6,#0]            ;153
000270  2800              CMP      r0,#0                 ;154
000272  d19f              BNE      |L1.436|
000274  78e0              LDRB     r0,[r4,#3]            ;155  ; outfireRobotState
000276  1c40              ADDS     r0,r0,#1              ;155
000278  70e0              STRB     r0,[r4,#3]            ;155
                  |L1.634|
00027a  e710              B        |L1.158|
                  |L1.636|
00027c  f8849001          STRB     r9,[r4,#1]            ;164
000280  70e0              STRB     r0,[r4,#3]            ;165
000282  e70c              B        |L1.158|
                  |L1.644|
000284  7065              STRB     r5,[r4,#1]            ;169
000286  2063              MOVS     r0,#0x63              ;170
000288  70e0              STRB     r0,[r4,#3]            ;170
00028a  e708              B        |L1.158|
                  |L1.652|
00028c  f884b007          STRB     r11,[r4,#7]           ;175
000290  e710              B        |L1.180|
                  |L1.658|
000292  2908              CMP      r1,#8                 ;187
000294  d070              BEQ      |L1.888|
000296  dc07              BGT      |L1.680|
000298  2908              CMP      r1,#8                 ;187
00029a  d28b              BCS      |L1.436|
00029c  e8dff001          TBB      [pc,r1]               ;187
0002a0  242e3d40          DCB      0x24,0x2e,0x3d,0x40
0002a4  48546367          DCB      0x48,0x54,0x63,0x67
                  |L1.680|
0002a8  290c              CMP      r1,#0xc               ;187
0002aa  d079              BEQ      |L1.928|
0002ac  dc0f              BGT      |L1.718|
0002ae  2909              CMP      r1,#9                 ;187
0002b0  d065              BEQ      |L1.894|
0002b2  290a              CMP      r1,#0xa               ;187
0002b4  d071              BEQ      |L1.922|
0002b6  290b              CMP      r1,#0xb               ;187
0002b8  d184              BNE      |L1.452|
0002ba  2001              MOVS     r0,#1                 ;251
0002bc  f7fffffe          BL       app_calibration
0002c0  7030              STRB     r0,[r6,#0]            ;251
0002c2  2800              CMP      r0,#0                 ;252
0002c4  d190              BNE      |L1.488|
0002c6  78e0              LDRB     r0,[r4,#3]            ;253  ; outfireRobotState
0002c8  1c40              ADDS     r0,r0,#1              ;253
0002ca  70e0              STRB     r0,[r4,#3]            ;253
                  |L1.716|
0002cc  e6e7              B        |L1.158|
                  |L1.718|
0002ce  290d              CMP      r1,#0xd               ;187
0002d0  d07a              BEQ      |L1.968|
0002d2  290e              CMP      r1,#0xe               ;187
0002d4  d07c              BEQ      |L1.976|
0002d6  2963              CMP      r1,#0x63              ;187
0002d8  d186              BNE      |L1.488|
0002da  f8849001          STRB     r9,[r4,#1]            ;275
0002de  2006              MOVS     r0,#6                 ;276
0002e0  71e0              STRB     r0,[r4,#7]            ;276
0002e2  f884c003          STRB     r12,[r4,#3]           ;277
0002e6  e6da              B        |L1.158|
0002e8  2001              MOVS     r0,#1                 ;189
0002ea  f7fffffe          BL       app_calibration
0002ee  7030              STRB     r0,[r6,#0]            ;189
0002f0  2800              CMP      r0,#0                 ;190
0002f2  d191              BNE      |L1.536|
0002f4  78e0              LDRB     r0,[r4,#3]            ;191  ; outfireRobotState
0002f6  1c40              ADDS     r0,r0,#1              ;191
0002f8  70e0              STRB     r0,[r4,#3]            ;191
                  |L1.762|
0002fa  e6d0              B        |L1.158|
0002fc  2001              MOVS     r0,#1                 ;195
0002fe  f7fffffe          BL       calibrationGostraight
000302  4840              LDR      r0,|L1.1028|
000304  68b9              LDR      r1,[r7,#8]            ;196  ; SRF_04_Data1
000306  4281              CMP      r1,r0                 ;196
000308  dc86              BGT      |L1.536|
00030a  f8d81008          LDR      r1,[r8,#8]            ;196  ; SRF_04_Data2
00030e  4281              CMP      r1,r0                 ;196
000310  dc8d              BGT      |L1.558|
000312  78e0              LDRB     r0,[r4,#3]            ;197  ; outfireRobotState
000314  1c40              ADDS     r0,r0,#1              ;197
000316  70e0              STRB     r0,[r4,#3]            ;197
000318  e6c1              B        |L1.158|
00031a  7062              STRB     r2,[r4,#1]            ;201
00031c  70e3              STRB     r3,[r4,#3]            ;202
00031e  e6be              B        |L1.158|
000320  7065              STRB     r5,[r4,#1]            ;206
000322  20c8              MOVS     r0,#0xc8              ;207
000324  f7fffffe          BL       vTaskDelay
000328  78e0              LDRB     r0,[r4,#3]            ;208  ; outfireRobotState
00032a  1c40              ADDS     r0,r0,#1              ;208
00032c  70e0              STRB     r0,[r4,#3]            ;208
00032e  e6b6              B        |L1.158|
000330  2002              MOVS     r0,#2                 ;212
000332  f7fffffe          BL       app_calibration
000336  7030              STRB     r0,[r6,#0]            ;212
000338  2800              CMP      r0,#0                 ;213
00033a  d186              BNE      |L1.586|
00033c  f8849001          STRB     r9,[r4,#1]            ;214
000340  78e0              LDRB     r0,[r4,#3]            ;215  ; outfireRobotState
000342  1c40              ADDS     r0,r0,#1              ;215
000344  70e0              STRB     r0,[r4,#3]            ;215
                  |L1.838|
000346  e6aa              B        |L1.158|
000348  2002              MOVS     r0,#2                 ;219
00034a  f7fffffe          BL       calibrationGostraight
00034e  482e              LDR      r0,|L1.1032|
000350  68b9              LDR      r1,[r7,#8]            ;220  ; SRF_04_Data1
000352  4281              CMP      r1,r0                 ;220
000354  dc85              BGT      |L1.610|
000356  f8d81008          LDR      r1,[r8,#8]            ;220  ; SRF_04_Data2
00035a  4281              CMP      r1,r0                 ;220
00035c  dc8d              BGT      |L1.634|
00035e  78e0              LDRB     r0,[r4,#3]            ;221  ; outfireRobotState
000360  1c40              ADDS     r0,r0,#1              ;221
000362  70e0              STRB     r0,[r4,#3]            ;221
                  |L1.868|
000364  e69b              B        |L1.158|
000366  7065              STRB     r5,[r4,#1]            ;225
000368  2007              MOVS     r0,#7                 ;226
00036a  70e0              STRB     r0,[r4,#3]            ;226
00036c  e697              B        |L1.158|
00036e  7062              STRB     r2,[r4,#1]            ;230
000370  f884a003          STRB     r10,[r4,#3]           ;231
000374  e693              B        |L1.158|
000376  e7ff              B        |L1.888|
                  |L1.888|
000378  7065              STRB     r5,[r4,#1]            ;235
00037a  70e0              STRB     r0,[r4,#3]            ;236
00037c  e68f              B        |L1.158|
                  |L1.894|
00037e  2001              MOVS     r0,#1                 ;240
000380  f7fffffe          BL       calibrationGostraight
000384  4821              LDR      r0,|L1.1036|
000386  6881              LDR      r1,[r0,#8]            ;241  ; SRF_04_Data4
000388  4821              LDR      r0,|L1.1040|
00038a  4281              CMP      r1,r0                 ;241
00038c  da9e              BGE      |L1.716|
00038e  78e0              LDRB     r0,[r4,#3]            ;242  ; outfireRobotState
000390  1c40              ADDS     r0,r0,#1              ;242
000392  70e0              STRB     r0,[r4,#3]            ;242
                  |L1.916|
000394  e683              B        |L1.158|
000396  e003              B        |L1.928|
000398  e7ff              B        |L1.922|
                  |L1.922|
00039a  7065              STRB     r5,[r4,#1]            ;246
00039c  70e0              STRB     r0,[r4,#3]            ;247
                  |L1.926|
00039e  e67e              B        |L1.158|
                  |L1.928|
0003a0  2015              MOVS     r0,#0x15              ;257
0003a2  7060              STRB     r0,[r4,#1]            ;257
0003a4  2001              MOVS     r0,#1                 ;258
0003a6  f7fffffe          BL       calibrationGostraight
0003aa  481b              LDR      r0,|L1.1048|
0003ac  68b9              LDR      r1,[r7,#8]            ;259  ; SRF_04_Data1
0003ae  4281              CMP      r1,r0                 ;259
0003b0  da8c              BGE      |L1.716|
0003b2  f8d81008          LDR      r1,[r8,#8]            ;259  ; SRF_04_Data2
0003b6  4281              CMP      r1,r0                 ;259
0003b8  da88              BGE      |L1.716|
0003ba  7065              STRB     r5,[r4,#1]            ;260
0003bc  78e0              LDRB     r0,[r4,#3]            ;261  ; outfireRobotState
0003be  1c40              ADDS     r0,r0,#1              ;261
0003c0  70e0              STRB     r0,[r4,#3]            ;261
                  |L1.962|
0003c2  e66c              B        |L1.158|
0003c4  e000              B        |L1.968|
0003c6  e003              B        |L1.976|
                  |L1.968|
0003c8  f884b001          STRB     r11,[r4,#1]           ;265
0003cc  70e0              STRB     r0,[r4,#3]            ;266
0003ce  e666              B        |L1.158|
                  |L1.976|
0003d0  7065              STRB     r5,[r4,#1]            ;270
0003d2  70e0              STRB     r0,[r4,#3]            ;271
0003d4  e663              B        |L1.158|
                  |L1.982|
0003d6  2906              CMP      r1,#6                 ;284
0003d8  d061              BEQ      |L1.1182|
0003da  2907              CMP      r1,#7                 ;284
0003dc  d062              BEQ      |L1.1188|
0003de  2908              CMP      r1,#8                 ;284
0003e0  d064              BEQ      |L1.1196|
0003e2  2963              CMP      r1,#0x63              ;284
0003e4  d189              BNE      |L1.762|
0003e6  f8849001          STRB     r9,[r4,#1]            ;337
0003ea  71e3              STRB     r3,[r4,#7]            ;338
0003ec  f884c003          STRB     r12,[r4,#3]           ;339
0003f0  e655              B        |L1.158|
0003f2  0000              DCW      0x0000
                  |L1.1012|
                          DCD      outfireRobotState
                  |L1.1016|
                          DCD      calibrationFinish
                  |L1.1020|
                          DCD      SRF_04_Data1
                  |L1.1024|
                          DCD      SRF_04_Data2
                  |L1.1028|
                          DCD      0x41880000
                  |L1.1032|
                          DCD      0x42540000
                  |L1.1036|
                          DCD      SRF_04_Data4
                  |L1.1040|
                          DCD      0x42480000
                  |L1.1044|
                          DCD      parameter
                  |L1.1048|
                          DCD      0x41f00000
                  |L1.1052|
                          DCD      0x41a00000
                  |L1.1056|
000420  2001              MOVS     r0,#1                 ;286
000422  f7fffffe          BL       app_calibration
000426  7030              STRB     r0,[r6,#0]            ;286
000428  2800              CMP      r0,#0                 ;287
00042a  d18c              BNE      |L1.838|
00042c  78e0              LDRB     r0,[r4,#3]            ;288  ; outfireRobotState
00042e  1c40              ADDS     r0,r0,#1              ;288
000430  70e0              STRB     r0,[r4,#3]            ;288
000432  e634              B        |L1.158|
                  |L1.1076|
000434  2001              MOVS     r0,#1                 ;292
000436  f7fffffe          BL       calibrationGostraight
00043a  481e              LDR      r0,|L1.1204|
00043c  68b9              LDR      r1,[r7,#8]            ;293  ; SRF_04_Data1
00043e  4281              CMP      r1,r0                 ;293
000440  dc90              BGT      |L1.868|
000442  f8d81008          LDR      r1,[r8,#8]            ;293  ; SRF_04_Data2
000446  4281              CMP      r1,r0                 ;293
000448  dc8c              BGT      |L1.868|
00044a  78e0              LDRB     r0,[r4,#3]            ;294  ; outfireRobotState
00044c  1c40              ADDS     r0,r0,#1              ;294
00044e  70e0              STRB     r0,[r4,#3]            ;294
000450  e625              B        |L1.158|
                  |L1.1106|
000452  7062              STRB     r2,[r4,#1]            ;298
000454  70e3              STRB     r3,[r4,#3]            ;299
000456  e622              B        |L1.158|
                  |L1.1112|
000458  7065              STRB     r5,[r4,#1]            ;303
00045a  20c8              MOVS     r0,#0xc8              ;304
00045c  f7fffffe          BL       vTaskDelay
000460  78e0              LDRB     r0,[r4,#3]            ;305  ; outfireRobotState
000462  1c40              ADDS     r0,r0,#1              ;305
000464  70e0              STRB     r0,[r4,#3]            ;305
000466  e61a              B        |L1.158|
                  |L1.1128|
000468  2002              MOVS     r0,#2                 ;309
00046a  f7fffffe          BL       app_calibration
00046e  7030              STRB     r0,[r6,#0]            ;309
000470  2800              CMP      r0,#0                 ;310
000472  d18f              BNE      |L1.916|
000474  f8849001          STRB     r9,[r4,#1]            ;311
000478  78e0              LDRB     r0,[r4,#3]            ;312  ; outfireRobotState
00047a  1c40              ADDS     r0,r0,#1              ;312
00047c  70e0              STRB     r0,[r4,#3]            ;312
00047e  e60e              B        |L1.158|
                  |L1.1152|
000480  2002              MOVS     r0,#2                 ;316
000482  f7fffffe          BL       calibrationGostraight
000486  480c              LDR      r0,|L1.1208|
000488  68b9              LDR      r1,[r7,#8]            ;317  ; SRF_04_Data1
00048a  4281              CMP      r1,r0                 ;317
00048c  dc87              BGT      |L1.926|
00048e  f8d81008          LDR      r1,[r8,#8]            ;317  ; SRF_04_Data2
000492  4281              CMP      r1,r0                 ;317
000494  dc95              BGT      |L1.962|
000496  78e0              LDRB     r0,[r4,#3]            ;318  ; outfireRobotState
000498  1c40              ADDS     r0,r0,#1              ;318
00049a  70e0              STRB     r0,[r4,#3]            ;318
00049c  e5ff              B        |L1.158|
                  |L1.1182|
00049e  7065              STRB     r5,[r4,#1]            ;322
0004a0  70e0              STRB     r0,[r4,#3]            ;323
0004a2  e5fc              B        |L1.158|
                  |L1.1188|
0004a4  f884b001          STRB     r11,[r4,#1]           ;327
0004a8  70e0              STRB     r0,[r4,#3]            ;328
0004aa  e5f8              B        |L1.158|
                  |L1.1196|
0004ac  7065              STRB     r5,[r4,#1]            ;332
0004ae  2063              MOVS     r0,#0x63              ;333
0004b0  70e0              STRB     r0,[r4,#3]            ;333
0004b2  e5f4              B        |L1.158|
;;;346    
                          ENDP

                  |L1.1204|
                          DCD      0x41880000
                  |L1.1208|
                          DCD      0x42540000

                          AREA ||i.app_findFourthFire||, CODE, READONLY, ALIGN=2

                  app_findFourthFire PROC
;;;407    
;;;408    void app_findFourthFire(void){
000000  e92d5ff0          PUSH     {r4-r12,lr}
;;;409    	if(outfireRobotState.fireArray[FOURTH_FIRE] == 1 && outfireRobotState.fireArray[FIFTH_FIRE] == 1 ){
000004  48fc              LDR      r0,|L2.1016|
;;;410    		switch(outfireRobotState.workStep){
;;;411    			case 0:{
;;;412    				if(SRF_04_Data1.getDistance >11&& SRF_04_Data2.getDistance >11){
000006  4afe              LDR      r2,|L2.1024|
000008  4601              MOV      r1,r0                 ;409
00000a  f890e00d          LDRB     lr,[r0,#0xd]          ;409  ; outfireRobotState
00000e  78cf              LDRB     r7,[r1,#3]            ;410
;;;413    					outfireRobotState.moveWays = GO_STRAIGHT;
;;;414    				}else if(SRF_04_Data1.getDistance <11&& SRF_04_Data2.getDistance <11){
;;;415    					outfireRobotState.moveWays = STOP;
;;;416    					outfireRobotState.workStep++;
;;;417    				}break;
;;;418    			}	
;;;419    			case 1:{
;;;420    				outfireRobotState.moveWays = REVERSE_LEFT_TURN_90;
;;;421    				outfireRobotState.workStep++;
;;;422    				break;
;;;423    			}
;;;424    			case 2:{
;;;425    				outfireRobotState.moveWays = STOP;
;;;426    				outfireRobotState.workStep++;
;;;427    				break;
;;;428    			}
;;;429    			case 3:{
;;;430    				outfireRobotState.moveWays = OTHER;
;;;431    				calibrationFinish = app_calibration(RIGHT);
;;;432    				if(calibrationFinish == CALIBRATION_FINISHED){
;;;433    					outfireRobotState.workStep++;
;;;434    				}break;
;;;435    			}
;;;436    			case 4:{
;;;437    				outfireRobotState.moveWays = GO_STRAIGHT;
;;;438    				calibrationGostraight(LEFT);
;;;439    				if(SRF_04_Data1.getDistance <18 && SRF_04_Data2.getDistance <18){
;;;440    					outfireRobotState.moveWays = STOP;
;;;441    					outfireRobotState.workStep++;
;;;442    				}
;;;443    				break;
;;;444    			}
;;;445    			case 5:{
;;;446    				outfireRobotState.moveWays = REVERSE_RIGHT_TURN_90;
;;;447    				outfireRobotState.workStep++;
;;;448    				break;
;;;449    			}
;;;450    			case 6:{
;;;451    				outfireRobotState.moveWays = STOP;
;;;452    				outfireRobotState.workStep++;
;;;453    				break;
;;;454    			}
;;;455    			case 7:{
;;;456    				outfireRobotState.moveWays = OTHER;
;;;457    				calibrationFinish = app_calibration(LEFT);
;;;458    				if(calibrationFinish == CALIBRATION_FINISHED){
;;;459    					outfireRobotState.workStep++;
;;;460    				}break;
;;;461    			}
;;;462    			case 8:{
;;;463    				outfireRobotState.moveWays = GO_STRAIGHT;
;;;464    				calibrationGostraight(LEFT);
;;;465    				if(SRF_04_Data1.getDistance <45 && SRF_04_Data2.getDistance <45){
;;;466    					outfireRobotState.workStep++;
;;;467    				}
;;;468    				break;
;;;469    			}
;;;470    			case 9:{
;;;471    				outfireRobotState.moveWays = STOP;
;;;472    				outfireRobotState.workStep++;
;;;473    				break;
;;;474    			}
;;;475    			case 10:{
;;;476    				outfireRobotState.moveWays = REVERSE_RIGHT_TURN_90;
;;;477    				outfireRobotState.workStep++;
;;;478    				break;
;;;479    			}
;;;480    			case 11:{
;;;481    				outfireRobotState.moveWays = STOP;
;;;482    				outfireRobotState.workStep++;
;;;483    				break;
;;;484    			}
;;;485    			case 12:{
;;;486    				outfireRobotState.moveWays = OTHER;
;;;487    				calibrationFinish = app_calibration(LEFT);
;;;488    				if(calibrationFinish == CALIBRATION_FINISHED){
;;;489    					outfireRobotState.workStep++;
;;;490    				}break;
;;;491    			}
;;;492    			case 13:{
;;;493    				outfireRobotState.moveWays = GO_STRAIGHT;
;;;494    				calibrationGostraight(LEFT);
;;;495    				if(SRF_04_Data1.getDistance <30 && SRF_04_Data2.getDistance <30){
;;;496    					outfireRobotState.moveWays = STOP;
;;;497    					outfireRobotState.workStep++;
;;;498    				}break;
;;;499    			}
;;;500    			case 14:{
;;;501    				outfireRobotState.moveWays = REVERSE_RIGHT_TURN_45;
;;;502    				outfireRobotState.workStep++;
;;;503    				break;
;;;504    			}
;;;505    			case 15:{
;;;506    				outfireRobotState.moveWays = STOP;
;;;507    				outfireRobotState.workStep++;
;;;508    				break;
;;;509    			}
;;;510    			case 16:{
;;;511    				calibrationFinish = app_findFire();
;;;512    				outfireRobotState.moveWays = OTHER;
;;;513    				if(calibrationFinish == CALIBRATION_FINISHED && SRF_04_Data1.getDistance <26&& SRF_04_Data2.getDistance <26){
;;;514    					outfireRobotState.moveWays = STOP;
;;;515    					outfireRobotState.workStep++;
;;;516    				}break;
;;;517    			}
;;;518    			case 17:{
;;;519    				outfireRobotState.moveWays = OTHER;
;;;520    				app_fan();
;;;521    				calibrationFinish = checkFire();
;;;522    				if(calibrationFinish == CALIBRATION_FINISHED){
;;;523    					outfireRobotState.workStep++;
;;;524    				}break;
;;;525    			}
;;;526    			case 18:{
;;;527    				app_goBack(600,NO_TURN);
;;;528    				outfireRobotState.workStep++;
;;;529    				break;
;;;530    			}
;;;531    			case 19:{
;;;532    				outfireRobotState.moveWays = REVERSE_RIGHT_TURN_135;
;;;533    				outfireRobotState.workStep++;
;;;534    				break;
;;;535    			}
;;;536    			case 20:{
;;;537    				outfireRobotState.moveWays = STOP;
;;;538    				outfireRobotState.workStep++;
;;;539    				break;
;;;540    			}
;;;541    			case 21:{
;;;542    				outfireRobotState.moveWays = OTHER;
;;;543    				calibrationFinish = app_calibration(LEFT);
;;;544    				if(calibrationFinish == CALIBRATION_FINISHED){
;;;545    					outfireRobotState.workStep++;
;;;546    				}break;
;;;547    			}
;;;548    			case 22:{
;;;549    				outfireRobotState.moveWays = GO_STRAIGHT;
;;;550    				calibrationGostraight(LEFT);
;;;551    				if(SRF_04_Data1.getDistance <35 && SRF_04_Data2.getDistance <35){
;;;552    					outfireRobotState.moveWays = STOP;
;;;553    					outfireRobotState.workStep++;
;;;554    				}
;;;555    				break;
;;;556    			}
;;;557    			case 23:{
;;;558    				outfireRobotState.moveWays = REVERSE_RIGHT_TURN_45;
;;;559    				outfireRobotState.workStep++;
;;;560    				break;
;;;561    			}
;;;562    			case 24:{
;;;563    				outfireRobotState.moveWays = STOP;
;;;564    				outfireRobotState.workStep++;
;;;565    				break;
;;;566    			}
;;;567    			case 25:{
;;;568    				calibrationFinish = app_findFire();
;;;569    				outfireRobotState.moveWays = OTHER;
;;;570    				if(calibrationFinish == CALIBRATION_FINISHED && SRF_04_Data1.getDistance <24 && SRF_04_Data2.getDistance <24){
;;;571    					outfireRobotState.moveWays = STOP;
;;;572    					outfireRobotState.workStep++;
;;;573    				}break;
;;;574    			}
;;;575    			case 26:{
;;;576    				outfireRobotState.moveWays = OTHER;
;;;577    				app_fan();
;;;578    				calibrationFinish = checkFire();
;;;579    				if(calibrationFinish == CALIBRATION_FINISHED){
;;;580    					outfireRobotState.workStep++;
;;;581    				}break;
;;;582    			}
;;;583    			case 27:{
;;;584    				app_goBack(600,NO_TURN);
;;;585    				outfireRobotState.workStep++;
;;;586    				break;
;;;587    			}
;;;588    			case 28:{
;;;589    				outfireRobotState.moveWays = REVERSE_LEFT_TURN_135;
;;;590    				outfireRobotState.workStep++;
;;;591    				break;
;;;592    			}
;;;593    			case 29:{
;;;594    				outfireRobotState.moveWays = STOP;
;;;595    				outfireRobotState.workStep++;
;;;596    				break;
;;;597    			}
;;;598    			case 30:{
;;;599    				outfireRobotState.moveWays = OTHER;
;;;600    				calibrationFinish = app_calibration(RIGHT);
;;;601    				if(calibrationFinish == CALIBRATION_FINISHED){
;;;602    					outfireRobotState.workStep = 99;
;;;603    				}break;
;;;604    			}
;;;605    			case 99:{
;;;606    				if(outfireRobotState.returnFlag[FOURTH_FIRE] == 1 || outfireRobotState.returnFlag[FIFTH_FIRE] == 1){
000010  f891a017          LDRB     r10,[r1,#0x17]
000014  f891b018          LDRB     r11,[r1,#0x18]
000018  f891c00e          LDRB     r12,[r1,#0xe]         ;409
00001c  49f7              LDR      r1,|L2.1020|
00001e  1c78              ADDS     r0,r7,#1              ;433
000020  2401              MOVS     r4,#1                 ;409
000022  2315              MOVS     r3,#0x15              ;413
000024  2614              MOVS     r6,#0x14              ;430
000026  6889              LDR      r1,[r1,#8]            ;412
000028  6892              LDR      r2,[r2,#8]            ;412
00002a  f04f080f          MOV      r8,#0xf               ;410
00002e  f04f090e          MOV      r9,#0xe               ;410
000032  b2c0              UXTB     r0,r0                 ;433
000034  f1be0f01          CMP      lr,#1                 ;409
000038  d103              BNE      |L2.66|
00003a  4def              LDR      r5,|L2.1016|
00003c  f1bc0f01          CMP      r12,#1                ;409
000040  d004              BEQ      |L2.76|
                  |L2.66|
;;;607    					outfireRobotState.robotTaskstep = RETURN;
;;;608    				}
;;;609    				else{
;;;610    					outfireRobotState.robotTaskstep = SIXTH_FIRE;
;;;611    					
;;;612    				}
;;;613    				outfireRobotState.moveWays = OTHER;
;;;614    				outfireRobotState.workStep = 0;
;;;615    				break;
;;;616    			}
;;;617    		}
;;;618    	}
;;;619    	else if(outfireRobotState.fireArray[FOURTH_FIRE] == 1 && outfireRobotState.fireArray[FIFTH_FIRE] == 0){
000042  4ded              LDR      r5,|L2.1016|
000044  f1be0f01          CMP      lr,#1
000048  d076              BEQ      |L2.312|
00004a  e16e              B        |L2.810|
                  |L2.76|
00004c  2f10              CMP      r7,#0x10              ;410
00004e  d074              BEQ      |L2.314|
000050  dc0b              BGT      |L2.106|
000052  2f10              CMP      r7,#0x10              ;410
000054  d227              BCS      |L2.166|
000056  e8dff007          TBB      [pc,r7]               ;410
00005a  3a48              DCB      0x3a,0x48
00005c  4d515d71          DCB      0x4d,0x51,0x5d,0x71
000060  767b8a9e          DCB      0x76,0x7b,0x8a,0x9e
000064  a2a7abb7          DCB      0xa2,0xa7,0xab,0xb7
000068  c9ce              DCB      0xc9,0xce
                  |L2.106|
00006a  2f18              CMP      r7,#0x18              ;410
00006c  d06f              BEQ      |L2.334|
00006e  dc09              BGT      |L2.132|
000070  f1a70711          SUB      r7,r7,#0x11           ;410
000074  2f07              CMP      r7,#7                 ;410
000076  d216              BCS      |L2.166|
000078  e8dff007          TBB      [pc,r7]               ;410
00007c  d6e3f1f5          DCB      0xd6,0xe3,0xf1,0xf5
000080  f8edec00          DCB      0xf8,0xed,0xec,0x00
                  |L2.132|
000084  2f1c              CMP      r7,#0x1c              ;410
000086  d06f              BEQ      |L2.360|
000088  dc0f              BGT      |L2.170|
00008a  2f19              CMP      r7,#0x19              ;410
00008c  d06d              BEQ      |L2.362|
00008e  2f1a              CMP      r7,#0x1a              ;410
000090  d06c              BEQ      |L2.364|
000092  2f1b              CMP      r7,#0x1b              ;410
000094  d107              BNE      |L2.166|
000096  2103              MOVS     r1,#3                 ;584
000098  f44f7016          MOV      r0,#0x258             ;584
00009c  f7fffffe          BL       app_goBack
0000a0  78e8              LDRB     r0,[r5,#3]            ;585  ; outfireRobotState
0000a2  1c40              ADDS     r0,r0,#1              ;585
0000a4  70e8              STRB     r0,[r5,#3]            ;585
                  |L2.166|
;;;620    		switch(outfireRobotState.workStep){
;;;621    			case 0:{
;;;622    				if(SRF_04_Data1.getDistance >11&& SRF_04_Data2.getDistance >11){
;;;623    					outfireRobotState.moveWays = GO_STRAIGHT;
;;;624    				}else if(SRF_04_Data1.getDistance <11&& SRF_04_Data2.getDistance <11){
;;;625    					outfireRobotState.moveWays = STOP;
;;;626    					outfireRobotState.workStep++;
;;;627    				}break;
;;;628    			}	
;;;629    			case 1:{
;;;630    				outfireRobotState.moveWays = REVERSE_LEFT_TURN_90;
;;;631    				outfireRobotState.workStep++;
;;;632    				break;
;;;633    			}
;;;634    			case 2:{
;;;635    				outfireRobotState.moveWays = STOP;
;;;636    				outfireRobotState.workStep++;
;;;637    				break;
;;;638    			}
;;;639    			case 3:{
;;;640    				outfireRobotState.moveWays = OTHER;
;;;641    				calibrationFinish = app_calibration(RIGHT);
;;;642    				if(calibrationFinish == CALIBRATION_FINISHED){
;;;643    					outfireRobotState.workStep++;
;;;644    				}break;
;;;645    			}
;;;646    			case 4:{
;;;647    				outfireRobotState.moveWays = GO_STRAIGHT;
;;;648    				calibrationGostraight(LEFT);
;;;649    				if(SRF_04_Data1.getDistance <18 && SRF_04_Data2.getDistance <18){
;;;650    					outfireRobotState.moveWays = STOP;
;;;651    					outfireRobotState.workStep++;
;;;652    				}
;;;653    				break;
;;;654    			}
;;;655    			case 5:{
;;;656    				outfireRobotState.moveWays = REVERSE_RIGHT_TURN_90;
;;;657    				outfireRobotState.workStep++;
;;;658    				break;
;;;659    			}
;;;660    			case 6:{
;;;661    				outfireRobotState.moveWays = STOP;
;;;662    				outfireRobotState.workStep++;
;;;663    				break;
;;;664    			}
;;;665    			case 7:{
;;;666    				outfireRobotState.moveWays = OTHER;
;;;667    				calibrationFinish = app_calibration(LEFT);
;;;668    				if(calibrationFinish == CALIBRATION_FINISHED){
;;;669    					outfireRobotState.workStep++;
;;;670    				}break;
;;;671    			}
;;;672    			case 8:{
;;;673    				outfireRobotState.moveWays = GO_STRAIGHT;
;;;674    				calibrationGostraight(LEFT);
;;;675    				if(SRF_04_Data1.getDistance <45 && SRF_04_Data2.getDistance <45){
;;;676    					outfireRobotState.workStep++;
;;;677    				}
;;;678    				break;
;;;679    			}
;;;680    			case 9:{
;;;681    				outfireRobotState.moveWays = STOP;
;;;682    				outfireRobotState.workStep++;
;;;683    				break;
;;;684    			}
;;;685    			case 10:{
;;;686    				outfireRobotState.moveWays = REVERSE_RIGHT_TURN_90;
;;;687    				outfireRobotState.workStep++;
;;;688    				break;
;;;689    			}
;;;690    			case 11:{
;;;691    				outfireRobotState.moveWays = STOP;
;;;692    				outfireRobotState.workStep++;
;;;693    				break;
;;;694    			}
;;;695    			case 12:{
;;;696    				outfireRobotState.moveWays = OTHER;
;;;697    				calibrationFinish = app_calibration(LEFT);
;;;698    				if(calibrationFinish == CALIBRATION_FINISHED){
;;;699    					outfireRobotState.workStep++;
;;;700    				}break;
;;;701    			}
;;;702    			case 13:{
;;;703    				outfireRobotState.moveWays = GO_STRAIGHT;
;;;704    				calibrationGostraight(LEFT);
;;;705    				if(SRF_04_Data1.getDistance <30 && SRF_04_Data2.getDistance <30){
;;;706    					outfireRobotState.moveWays = STOP;
;;;707    					outfireRobotState.workStep++;
;;;708    				}break;
;;;709    			}
;;;710    			case 14:{
;;;711    				outfireRobotState.moveWays = REVERSE_RIGHT_TURN_45;
;;;712    				outfireRobotState.workStep++;
;;;713    				break;
;;;714    			}
;;;715    			case 15:{
;;;716    				outfireRobotState.moveWays = STOP;
;;;717    				outfireRobotState.workStep++;
;;;718    				break;
;;;719    			}
;;;720    			case 16:{
;;;721    				calibrationFinish = app_findFire();
;;;722    				outfireRobotState.moveWays = OTHER;
;;;723    				if(calibrationFinish == CALIBRATION_FINISHED && SRF_04_Data1.getDistance <26&& SRF_04_Data2.getDistance <26){
;;;724    					outfireRobotState.moveWays = STOP;
;;;725    					outfireRobotState.workStep++;
;;;726    				}break;
;;;727    			}
;;;728    			case 17:{
;;;729    				outfireRobotState.moveWays = OTHER;
;;;730    				app_fan();
;;;731    				calibrationFinish = checkFire();
;;;732    				if(calibrationFinish == CALIBRATION_FINISHED){
;;;733    					outfireRobotState.workStep++;
;;;734    				}break;
;;;735    			}
;;;736    			case 18:{
;;;737    				app_goBack(600,NO_TURN);
;;;738    				outfireRobotState.workStep++;
;;;739    				break;
;;;740    			}
;;;741    			case 19:{
;;;742    				outfireRobotState.moveWays = REVERSE_RIGHT_TURN_135;
;;;743    				outfireRobotState.workStep++;
;;;744    				break;
;;;745    			}
;;;746    			case 20:{
;;;747    				outfireRobotState.moveWays = STOP;
;;;748    				outfireRobotState.workStep++;
;;;749    				break;
;;;750    			}
;;;751    			case 21:{
;;;752    				outfireRobotState.moveWays = OTHER;
;;;753    				calibrationFinish = app_calibration(LEFT);
;;;754    				if(calibrationFinish == CALIBRATION_FINISHED){
;;;755    					outfireRobotState.workStep++;
;;;756    				}break;
;;;757    			}
;;;758    			case 22:{
;;;759    				outfireRobotState.moveWays = GO_STRAIGHT;
;;;760    				calibrationGostraight(LEFT);
;;;761    				if(SRF_04_Data1.getDistance <20 && SRF_04_Data2.getDistance <20){
;;;762    					outfireRobotState.moveWays = STOP;
;;;763    					outfireRobotState.workStep++;
;;;764    				}
;;;765    				break;
;;;766    			}
;;;767    			case 23:{
;;;768    				outfireRobotState.moveWays = REVERSE_LEFT_TURN_90;
;;;769    				outfireRobotState.workStep++;
;;;770    				break;
;;;771    			}
;;;772    			case 24:{
;;;773    				outfireRobotState.moveWays = STOP;
;;;774    				outfireRobotState.workStep++;
;;;775    				break;
;;;776    			}
;;;777    			case 25:{
;;;778    				outfireRobotState.moveWays = OTHER;
;;;779    				calibrationFinish = app_calibration(RIGHT);
;;;780    				if(calibrationFinish == CALIBRATION_FINISHED){
;;;781    					outfireRobotState.workStep = 99;
;;;782    				}break;
;;;783    			}
;;;784    			case 99:{
;;;785    				if(outfireRobotState.returnFlag[FOURTH_FIRE] == 1){
;;;786    					outfireRobotState.robotTaskstep = RETURN;
;;;787    				}
;;;788    				else{
;;;789    					outfireRobotState.robotTaskstep = SIXTH_FIRE;
;;;790    					
;;;791    				}
;;;792    				outfireRobotState.moveWays = OTHER;
;;;793    				outfireRobotState.workStep = 0;
;;;794    				break;
;;;795    			}
;;;796    		}
;;;797    	}		
;;;798    	else if(outfireRobotState.fireArray[FOURTH_FIRE] == 0){
;;;799    		if(outfireRobotState.fireArray[FIFTH_FIRE] == 1){
;;;800    			switch(outfireRobotState.workStep){
;;;801    				case 0:{
;;;802    					if(SRF_04_Data1.getDistance >11&& SRF_04_Data2.getDistance >11){
;;;803    						outfireRobotState.moveWays = GO_STRAIGHT;
;;;804    					}else if(SRF_04_Data1.getDistance <11&& SRF_04_Data2.getDistance <11){
;;;805    						outfireRobotState.moveWays = STOP;
;;;806    						outfireRobotState.workStep++;
;;;807    					}break;
;;;808    				}	
;;;809    				case 1:{
;;;810    					outfireRobotState.moveWays = REVERSE_LEFT_TURN_90;
;;;811    					outfireRobotState.workStep++;
;;;812    					break;
;;;813    				}
;;;814    				case 2:{
;;;815    					outfireRobotState.moveWays = STOP;
;;;816    					outfireRobotState.workStep++;
;;;817    					break;
;;;818    				}
;;;819    				case 3:{
;;;820    					outfireRobotState.moveWays = OTHER;
;;;821    					calibrationFinish = app_calibration(RIGHT);
;;;822    					if(calibrationFinish == CALIBRATION_FINISHED){
;;;823    						outfireRobotState.workStep++;
;;;824    					}break;
;;;825    				}
;;;826    				case 4:{
;;;827    					outfireRobotState.moveWays = GO_STRAIGHT;
;;;828    					calibrationGostraight(LEFT);
;;;829    					if(SRF_04_Data1.getDistance <18 && SRF_04_Data2.getDistance <18){
;;;830    						outfireRobotState.moveWays = STOP;
;;;831    						outfireRobotState.workStep++;
;;;832    					}
;;;833    					break;
;;;834    				}
;;;835    				case 5:{
;;;836    					outfireRobotState.moveWays = REVERSE_RIGHT_TURN_90;
;;;837    					outfireRobotState.workStep++;
;;;838    					break;
;;;839    				}
;;;840    				case 6:{
;;;841    					outfireRobotState.moveWays = STOP;
;;;842    					outfireRobotState.workStep++;
;;;843    					break;
;;;844    				}
;;;845    				case 7:{
;;;846    					outfireRobotState.moveWays = OTHER;
;;;847    					calibrationFinish = app_calibration(LEFT);
;;;848    					if(calibrationFinish == CALIBRATION_FINISHED){
;;;849    						outfireRobotState.workStep++;
;;;850    					}break;
;;;851    				}
;;;852    				case 8:{
;;;853    					outfireRobotState.moveWays = GO_STRAIGHT;
;;;854    					calibrationGostraight(LEFT);
;;;855    					if(SRF_04_Data1.getDistance <35 && SRF_04_Data2.getDistance <35){
;;;856    						outfireRobotState.workStep++;
;;;857    					}
;;;858    					break;
;;;859    				}
;;;860    				case 9:{
;;;861    					outfireRobotState.moveWays = STOP;
;;;862    					outfireRobotState.workStep++;
;;;863    					break;
;;;864    				}
;;;865    				case 10:{
;;;866    					outfireRobotState.moveWays = REVERSE_LEFT_TURN_45;
;;;867    					outfireRobotState.workStep++;
;;;868    					break;
;;;869    				}
;;;870    				case 11:{
;;;871    					calibrationFinish = app_findFire();
;;;872    					outfireRobotState.moveWays = OTHER;
;;;873    					if(calibrationFinish == CALIBRATION_FINISHED && SRF_04_Data1.getDistance <30&& SRF_04_Data2.getDistance <30){
;;;874    						outfireRobotState.moveWays = STOP;
;;;875    						outfireRobotState.workStep++;
;;;876    					}break;
;;;877    				}
;;;878    				case 12:{
;;;879    					outfireRobotState.moveWays = OTHER;
;;;880    					app_fan();
;;;881    					calibrationFinish = checkFire();
;;;882    					if(calibrationFinish == CALIBRATION_FINISHED){
;;;883    						outfireRobotState.workStep++;
;;;884    					}break;
;;;885    				}
;;;886    				case 13:{
;;;887    					app_goBack(150,NO_TURN);
;;;888    					outfireRobotState.workStep++;
;;;889    					break;
;;;890    				}
;;;891    				case 14:{
;;;892    					outfireRobotState.moveWays = REVERSE_LEFT_TURN_135;
;;;893    					outfireRobotState.workStep++;
;;;894    					break;
;;;895    				}
;;;896    				case 15:{
;;;897    					outfireRobotState.moveWays = STOP;
;;;898    					outfireRobotState.workStep++;
;;;899    					break;
;;;900    				}
;;;901    				case 16:{
;;;902    					outfireRobotState.moveWays = OTHER;
;;;903    					calibrationFinish = app_calibration(RIGHT);
;;;904    					if(calibrationFinish == CALIBRATION_FINISHED){
;;;905    						outfireRobotState.workStep = 99;
;;;906    					}break;
;;;907    				}
;;;908    				case 99:{
;;;909    					if(outfireRobotState.returnFlag[FIFTH_FIRE] == 1){
;;;910    						outfireRobotState.robotTaskstep = RETURN;
;;;911    					}
;;;912    					else{
;;;913    						outfireRobotState.robotTaskstep = SIXTH_FIRE;
;;;914    						
;;;915    					}
;;;916    					outfireRobotState.moveWays = OTHER;
;;;917    					outfireRobotState.workStep = 0;
;;;918    					break;
;;;919    				}
;;;920    			}
;;;921    		}
;;;922    		else{	
;;;923    			switch(outfireRobotState.workStep){
;;;924    				case 0:{
;;;925    					if(SRF_04_Data1.getDistance >11&& SRF_04_Data2.getDistance >11){
;;;926    						outfireRobotState.moveWays = GO_STRAIGHT;
;;;927    					}else if(SRF_04_Data1.getDistance <11&& SRF_04_Data2.getDistance <11){
;;;928    						outfireRobotState.moveWays = STOP;
;;;929    						outfireRobotState.workStep++;
;;;930    					}break;
;;;931    				}	
;;;932    				case 1:{
;;;933    					outfireRobotState.moveWays = REVERSE_LEFT_TURN_90;
;;;934    					outfireRobotState.workStep++;
;;;935    					break;
;;;936    				}
;;;937    				case 2:{
;;;938    					outfireRobotState.moveWays = STOP;
;;;939    					outfireRobotState.workStep++;
;;;940    					break;
;;;941    				}
;;;942    				case 3:{
;;;943    					outfireRobotState.moveWays = OTHER;
;;;944    					calibrationFinish = app_calibration(RIGHT);
;;;945    					if(calibrationFinish == CALIBRATION_FINISHED){
;;;946    						outfireRobotState.workStep++;
;;;947    					}break;
;;;948    				}
;;;949    				case 4:{
;;;950    					outfireRobotState.moveWays = GO_STRAIGHT;
;;;951    					calibrationGostraight(LEFT);
;;;952    					if(SRF_04_Data1.getDistance <20 && SRF_04_Data2.getDistance <20){
;;;953    						outfireRobotState.moveWays = STOP;
;;;954    						outfireRobotState.workStep++;
;;;955    					}
;;;956    					break;
;;;957    				}
;;;958    				case 5:{
;;;959    					calibrationFinish = app_findFire();
;;;960    					outfireRobotState.moveWays = OTHER;
;;;961    					if(calibrationFinish == CALIBRATION_FINISHED && SRF_04_Data1.getDistance <28 && SRF_04_Data2.getDistance <28){
;;;962    						outfireRobotState.moveWays = STOP;
;;;963    						outfireRobotState.workStep++;
;;;964    					}break;
;;;965    				}
;;;966    				case 6:{
;;;967    					app_fan();
;;;968    					outfireRobotState.moveWays = OTHER;
;;;969    					calibrationFinish = checkFire();
;;;970    					if(calibrationFinish == CALIBRATION_FINISHED){
;;;971    						outfireRobotState.workStep++;
;;;972    					}break;
;;;973    				}
;;;974    				case 7:{
;;;975    					app_goBack(180,NO_TURN);
;;;976    					outfireRobotState.workStep++;
;;;977    					break;
;;;978    				}
;;;979    				case 8:{
;;;980    					outfireRobotState.moveWays = REVERSE_LEFT_TURN_135;
;;;981    					outfireRobotState.workStep++;
;;;982    					break;
;;;983    				}
;;;984    				case 9:{
;;;985    					outfireRobotState.moveWays = STOP;
;;;986    					outfireRobotState.workStep++;
;;;987    					break;
;;;988    				}
;;;989    				case 10:{
;;;990    					outfireRobotState.moveWays = OTHER;
;;;991    					calibrationFinish = app_calibration(RIGHT);
;;;992    					if(calibrationFinish == CALIBRATION_FINISHED){
;;;993    						outfireRobotState.workStep = 99;
;;;994    					}break;
;;;995    				}
;;;996    				case 99:{
;;;997    					if(outfireRobotState.returnFlag[SIXTH_FIRE] == 1){
;;;998    						outfireRobotState.robotTaskstep = RETURN;
;;;999    					}
;;;1000   					outfireRobotState.moveWays = OTHER;
;;;1001   					outfireRobotState.workStep = 0;
;;;1002   					break;
;;;1003   				}
;;;1004   			}
;;;1005   		}
;;;1006   	}				
;;;1007   }
0000a6  e8bd9ff0          POP      {r4-r12,pc}
                  |L2.170|
0000aa  2f1d              CMP      r7,#0x1d              ;410
0000ac  d070              BEQ      |L2.400|
0000ae  2f1e              CMP      r7,#0x1e              ;410
0000b0  d06f              BEQ      |L2.402|
0000b2  2f63              CMP      r7,#0x63              ;410
0000b4  d1f7              BNE      |L2.166|
0000b6  f1ba0f01          CMP      r10,#1                ;606
                  |L2.186|
0000ba  d06b              BEQ      |L2.404|
0000bc  f1bb0f01          CMP      r11,#1                ;606
0000c0  d0fb              BEQ      |L2.186|
0000c2  2005              MOVS     r0,#5                 ;610
0000c4  71e8              STRB     r0,[r5,#7]            ;610
                  |L2.198|
0000c6  706e              STRB     r6,[r5,#1]            ;613
0000c8  2000              MOVS     r0,#0                 ;614
0000ca  70e8              STRB     r0,[r5,#3]            ;614
                  |L2.204|
0000cc  e7eb              B        |L2.166|
0000ce  48cd              LDR      r0,|L2.1028|
0000d0  4281              CMP      r1,r0                 ;412
0000d2  dd03              BLE      |L2.220|
0000d4  4282              CMP      r2,r0                 ;412
0000d6  dd01              BLE      |L2.220|
0000d8  706b              STRB     r3,[r5,#1]            ;413
0000da  e7e4              B        |L2.166|
                  |L2.220|
0000dc  4281              CMP      r1,r0                 ;414
0000de  dae2              BGE      |L2.166|
0000e0  4282              CMP      r2,r0                 ;414
0000e2  dae0              BGE      |L2.166|
0000e4  706c              STRB     r4,[r5,#1]            ;415
0000e6  70ec              STRB     r4,[r5,#3]            ;416
                  |L2.232|
0000e8  e7dd              B        |L2.166|
0000ea  f8859001          STRB     r9,[r5,#1]            ;420
0000ee  2002              MOVS     r0,#2                 ;421
0000f0  70e8              STRB     r0,[r5,#3]            ;421
                  |L2.242|
0000f2  e7d8              B        |L2.166|
0000f4  706c              STRB     r4,[r5,#1]            ;425
0000f6  2003              MOVS     r0,#3                 ;426
0000f8  70e8              STRB     r0,[r5,#3]            ;426
0000fa  e7d4              B        |L2.166|
0000fc  706e              STRB     r6,[r5,#1]            ;430
0000fe  2002              MOVS     r0,#2                 ;431
000100  f7fffffe          BL       app_calibration
000104  49c0              LDR      r1,|L2.1032|
000106  7008              STRB     r0,[r1,#0]            ;431
000108  2800              CMP      r0,#0                 ;432
00010a  d1cc              BNE      |L2.166|
00010c  78e8              LDRB     r0,[r5,#3]            ;433  ; outfireRobotState
00010e  1c40              ADDS     r0,r0,#1              ;433
000110  70e8              STRB     r0,[r5,#3]            ;433
000112  e7c8              B        |L2.166|
000114  706b              STRB     r3,[r5,#1]            ;437
000116  2001              MOVS     r0,#1                 ;438
000118  f7fffffe          BL       calibrationGostraight
00011c  48b7              LDR      r0,|L2.1020|
00011e  6881              LDR      r1,[r0,#8]            ;439  ; SRF_04_Data1
000120  48ba              LDR      r0,|L2.1036|
000122  4281              CMP      r1,r0                 ;439
000124  dabf              BGE      |L2.166|
000126  49b6              LDR      r1,|L2.1024|
000128  6889              LDR      r1,[r1,#8]            ;439  ; SRF_04_Data2
00012a  4281              CMP      r1,r0                 ;439
00012c  dabb              BGE      |L2.166|
00012e  706c              STRB     r4,[r5,#1]            ;440
000130  78e8              LDRB     r0,[r5,#3]            ;441  ; outfireRobotState
000132  1c40              ADDS     r0,r0,#1              ;441
000134  70e8              STRB     r0,[r5,#3]            ;441
                  |L2.310|
000136  e7b6              B        |L2.166|
                  |L2.312|
000138  e0f4              B        |L2.804|
                  |L2.314|
00013a  e060              B        |L2.510|
00013c  f8858001          STRB     r8,[r5,#1]            ;446
000140  2006              MOVS     r0,#6                 ;447
000142  70e8              STRB     r0,[r5,#3]            ;447
                  |L2.324|
000144  e7af              B        |L2.166|
000146  706c              STRB     r4,[r5,#1]            ;451
000148  2007              MOVS     r0,#7                 ;452
00014a  70e8              STRB     r0,[r5,#3]            ;452
00014c  e7ab              B        |L2.166|
                  |L2.334|
00014e  e0af              B        |L2.688|
000150  706e              STRB     r6,[r5,#1]            ;456
000152  2001              MOVS     r0,#1                 ;457
000154  f7fffffe          BL       app_calibration
000158  49ab              LDR      r1,|L2.1032|
00015a  7008              STRB     r0,[r1,#0]            ;457
00015c  2800              CMP      r0,#0                 ;458
00015e  d1a2              BNE      |L2.166|
000160  78e8              LDRB     r0,[r5,#3]            ;459  ; outfireRobotState
000162  1c40              ADDS     r0,r0,#1              ;459
000164  70e8              STRB     r0,[r5,#3]            ;459
000166  e79e              B        |L2.166|
                  |L2.360|
000168  e0c7              B        |L2.762|
                  |L2.362|
00016a  e0a4              B        |L2.694|
                  |L2.364|
00016c  e0b8              B        |L2.736|
00016e  706b              STRB     r3,[r5,#1]            ;463
000170  2001              MOVS     r0,#1                 ;464
000172  f7fffffe          BL       calibrationGostraight
000176  48a1              LDR      r0,|L2.1020|
000178  6881              LDR      r1,[r0,#8]            ;465  ; SRF_04_Data1
00017a  48a5              LDR      r0,|L2.1040|
00017c  4281              CMP      r1,r0                 ;465
00017e  da92              BGE      |L2.166|
000180  499f              LDR      r1,|L2.1024|
000182  6889              LDR      r1,[r1,#8]            ;465  ; SRF_04_Data2
000184  4281              CMP      r1,r0                 ;465
000186  da8e              BGE      |L2.166|
000188  78e8              LDRB     r0,[r5,#3]            ;466  ; outfireRobotState
00018a  1c40              ADDS     r0,r0,#1              ;466
00018c  70e8              STRB     r0,[r5,#3]            ;466
                  |L2.398|
00018e  e78a              B        |L2.166|
                  |L2.400|
000190  e0b7              B        |L2.770|
                  |L2.402|
000192  e0b9              B        |L2.776|
                  |L2.404|
000194  e0c3              B        |L2.798|
000196  706c              STRB     r4,[r5,#1]            ;471
000198  200a              MOVS     r0,#0xa               ;472
00019a  70e8              STRB     r0,[r5,#3]            ;472
00019c  e783              B        |L2.166|
00019e  f8858001          STRB     r8,[r5,#1]            ;476
0001a2  200b              MOVS     r0,#0xb               ;477
0001a4  70e8              STRB     r0,[r5,#3]            ;477
                  |L2.422|
0001a6  e77e              B        |L2.166|
0001a8  706c              STRB     r4,[r5,#1]            ;481
0001aa  200c              MOVS     r0,#0xc               ;482
0001ac  70e8              STRB     r0,[r5,#3]            ;482
                  |L2.430|
0001ae  e77a              B        |L2.166|
0001b0  706e              STRB     r6,[r5,#1]            ;486
0001b2  2001              MOVS     r0,#1                 ;487
0001b4  f7fffffe          BL       app_calibration
0001b8  4993              LDR      r1,|L2.1032|
0001ba  7008              STRB     r0,[r1,#0]            ;487
0001bc  2800              CMP      r0,#0                 ;488
0001be  d185              BNE      |L2.204|
0001c0  78e8              LDRB     r0,[r5,#3]            ;489  ; outfireRobotState
0001c2  1c40              ADDS     r0,r0,#1              ;489
0001c4  70e8              STRB     r0,[r5,#3]            ;489
0001c6  e76e              B        |L2.166|
0001c8  706b              STRB     r3,[r5,#1]            ;493
0001ca  2001              MOVS     r0,#1                 ;494
0001cc  f7fffffe          BL       calibrationGostraight
0001d0  488a              LDR      r0,|L2.1020|
0001d2  6881              LDR      r1,[r0,#8]            ;495  ; SRF_04_Data1
0001d4  488f              LDR      r0,|L2.1044|
0001d6  4281              CMP      r1,r0                 ;495
0001d8  da86              BGE      |L2.232|
0001da  4989              LDR      r1,|L2.1024|
0001dc  6889              LDR      r1,[r1,#8]            ;495  ; SRF_04_Data2
0001de  4281              CMP      r1,r0                 ;495
0001e0  da87              BGE      |L2.242|
0001e2  706c              STRB     r4,[r5,#1]            ;496
0001e4  78e8              LDRB     r0,[r5,#3]            ;497  ; outfireRobotState
0001e6  1c40              ADDS     r0,r0,#1              ;497
0001e8  70e8              STRB     r0,[r5,#3]            ;497
                  |L2.490|
0001ea  e75c              B        |L2.166|
0001ec  200d              MOVS     r0,#0xd               ;501
0001ee  7068              STRB     r0,[r5,#1]            ;501
0001f0  f8858003          STRB     r8,[r5,#3]            ;502
0001f4  e757              B        |L2.166|
0001f6  706c              STRB     r4,[r5,#1]            ;506
0001f8  2010              MOVS     r0,#0x10              ;507
0001fa  70e8              STRB     r0,[r5,#3]            ;507
                  |L2.508|
0001fc  e753              B        |L2.166|
                  |L2.510|
0001fe  f7fffffe          BL       app_findFire
000202  4981              LDR      r1,|L2.1032|
000204  7008              STRB     r0,[r1,#0]            ;511
000206  706e              STRB     r6,[r5,#1]            ;512
000208  2800              CMP      r0,#0                 ;513
00020a  d194              BNE      |L2.310|
00020c  487b              LDR      r0,|L2.1020|
00020e  6881              LDR      r1,[r0,#8]            ;513  ; SRF_04_Data1
000210  4881              LDR      r0,|L2.1048|
000212  4281              CMP      r1,r0                 ;513
000214  da8f              BGE      |L2.310|
000216  497a              LDR      r1,|L2.1024|
000218  6889              LDR      r1,[r1,#8]            ;513  ; SRF_04_Data2
00021a  4281              CMP      r1,r0                 ;513
00021c  da8b              BGE      |L2.310|
00021e  706c              STRB     r4,[r5,#1]            ;514
000220  78e8              LDRB     r0,[r5,#3]            ;515  ; outfireRobotState
000222  1c40              ADDS     r0,r0,#1              ;515
000224  70e8              STRB     r0,[r5,#3]            ;515
                  |L2.550|
000226  e73e              B        |L2.166|
000228  706e              STRB     r6,[r5,#1]            ;519
00022a  f7fffffe          BL       app_fan
00022e  f7fffffe          BL       checkFire
000232  4975              LDR      r1,|L2.1032|
000234  7008              STRB     r0,[r1,#0]            ;521
000236  2800              CMP      r0,#0                 ;522
000238  d184              BNE      |L2.324|
00023a  78e8              LDRB     r0,[r5,#3]            ;523  ; outfireRobotState
00023c  1c40              ADDS     r0,r0,#1              ;523
00023e  70e8              STRB     r0,[r5,#3]            ;523
                  |L2.576|
000240  e731              B        |L2.166|
000242  2103              MOVS     r1,#3                 ;527
000244  f44f7016          MOV      r0,#0x258             ;527
000248  f7fffffe          BL       app_goBack
00024c  78e8              LDRB     r0,[r5,#3]            ;528  ; outfireRobotState
00024e  1c40              ADDS     r0,r0,#1              ;528
000250  70e8              STRB     r0,[r5,#3]            ;528
                  |L2.594|
000252  e728              B        |L2.166|
000254  e028              B        |L2.680|
000256  e015              B        |L2.644|
000258  e008              B        |L2.620|
00025a  e004              B        |L2.614|
00025c  e7ff              B        |L2.606|
                  |L2.606|
00025e  2111              MOVS     r1,#0x11              ;532
000260  7069              STRB     r1,[r5,#1]            ;532
000262  70e8              STRB     r0,[r5,#3]            ;533
                  |L2.612|
000264  e71f              B        |L2.166|
                  |L2.614|
000266  706c              STRB     r4,[r5,#1]            ;537
000268  70e8              STRB     r0,[r5,#3]            ;538
00026a  e71c              B        |L2.166|
                  |L2.620|
00026c  706e              STRB     r6,[r5,#1]            ;542
00026e  2001              MOVS     r0,#1                 ;543
000270  f7fffffe          BL       app_calibration
000274  4964              LDR      r1,|L2.1032|
000276  7008              STRB     r0,[r1,#0]            ;543
000278  2800              CMP      r0,#0                 ;544
00027a  d188              BNE      |L2.398|
00027c  78e8              LDRB     r0,[r5,#3]            ;545  ; outfireRobotState
00027e  1c40              ADDS     r0,r0,#1              ;545
000280  70e8              STRB     r0,[r5,#3]            ;545
                  |L2.642|
000282  e710              B        |L2.166|
                  |L2.644|
000284  706b              STRB     r3,[r5,#1]            ;549
000286  2001              MOVS     r0,#1                 ;550
000288  f7fffffe          BL       calibrationGostraight
00028c  485b              LDR      r0,|L2.1020|
00028e  6881              LDR      r1,[r0,#8]            ;551  ; SRF_04_Data1
000290  4862              LDR      r0,|L2.1052|
000292  4281              CMP      r1,r0                 ;551
000294  da87              BGE      |L2.422|
000296  495a              LDR      r1,|L2.1024|
000298  6889              LDR      r1,[r1,#8]            ;551  ; SRF_04_Data2
00029a  4281              CMP      r1,r0                 ;551
00029c  da87              BGE      |L2.430|
00029e  706c              STRB     r4,[r5,#1]            ;552
0002a0  78e8              LDRB     r0,[r5,#3]            ;553  ; outfireRobotState
0002a2  1c40              ADDS     r0,r0,#1              ;553
0002a4  70e8              STRB     r0,[r5,#3]            ;553
                  |L2.678|
0002a6  e6fe              B        |L2.166|
                  |L2.680|
0002a8  210d              MOVS     r1,#0xd               ;558
0002aa  7069              STRB     r1,[r5,#1]            ;558
0002ac  70e8              STRB     r0,[r5,#3]            ;559
                  |L2.686|
0002ae  e6fa              B        |L2.166|
                  |L2.688|
0002b0  706c              STRB     r4,[r5,#1]            ;563
0002b2  70e8              STRB     r0,[r5,#3]            ;564
0002b4  e6f7              B        |L2.166|
                  |L2.694|
0002b6  f7fffffe          BL       app_findFire
0002ba  4953              LDR      r1,|L2.1032|
0002bc  7008              STRB     r0,[r1,#0]            ;568
0002be  706e              STRB     r6,[r5,#1]            ;569
0002c0  2800              CMP      r0,#0                 ;570
0002c2  d192              BNE      |L2.490|
0002c4  484d              LDR      r0,|L2.1020|
0002c6  6881              LDR      r1,[r0,#8]            ;570  ; SRF_04_Data1
0002c8  4855              LDR      r0,|L2.1056|
0002ca  4281              CMP      r1,r0                 ;570
0002cc  da8d              BGE      |L2.490|
0002ce  494c              LDR      r1,|L2.1024|
0002d0  6889              LDR      r1,[r1,#8]            ;570  ; SRF_04_Data2
0002d2  4281              CMP      r1,r0                 ;570
0002d4  da89              BGE      |L2.490|
0002d6  706c              STRB     r4,[r5,#1]            ;571
0002d8  78e8              LDRB     r0,[r5,#3]            ;572  ; outfireRobotState
0002da  1c40              ADDS     r0,r0,#1              ;572
0002dc  70e8              STRB     r0,[r5,#3]            ;572
                  |L2.734|
0002de  e6e2              B        |L2.166|
                  |L2.736|
0002e0  706e              STRB     r6,[r5,#1]            ;576
0002e2  f7fffffe          BL       app_fan
0002e6  f7fffffe          BL       checkFire
0002ea  4947              LDR      r1,|L2.1032|
0002ec  7008              STRB     r0,[r1,#0]            ;578
0002ee  2800              CMP      r0,#0                 ;579
0002f0  d184              BNE      |L2.508|
0002f2  78e8              LDRB     r0,[r5,#3]            ;580  ; outfireRobotState
0002f4  1c40              ADDS     r0,r0,#1              ;580
0002f6  70e8              STRB     r0,[r5,#3]            ;580
0002f8  e6d5              B        |L2.166|
                  |L2.762|
0002fa  2110              MOVS     r1,#0x10              ;589
0002fc  7069              STRB     r1,[r5,#1]            ;589
0002fe  70e8              STRB     r0,[r5,#3]            ;590
                  |L2.768|
000300  e6d1              B        |L2.166|
                  |L2.770|
000302  706c              STRB     r4,[r5,#1]            ;594
000304  70e8              STRB     r0,[r5,#3]            ;595
000306  e6ce              B        |L2.166|
                  |L2.776|
000308  706e              STRB     r6,[r5,#1]            ;599
00030a  2002              MOVS     r0,#2                 ;600
00030c  f7fffffe          BL       app_calibration
000310  493d              LDR      r1,|L2.1032|
000312  7008              STRB     r0,[r1,#0]            ;600
000314  2800              CMP      r0,#0                 ;601
000316  d186              BNE      |L2.550|
000318  2063              MOVS     r0,#0x63              ;602
00031a  70e8              STRB     r0,[r5,#3]            ;602
00031c  e6c3              B        |L2.166|
                  |L2.798|
00031e  2009              MOVS     r0,#9                 ;607
000320  71e8              STRB     r0,[r5,#7]            ;607
000322  e6d0              B        |L2.198|
                  |L2.804|
000324  f1bc0f00          CMP      r12,#0                ;619
000328  d00f              BEQ      |L2.842|
                  |L2.810|
00032a  f1be0f00          CMP      lr,#0                 ;798
00032e  d187              BNE      |L2.576|
000330  f1bc0f01          CMP      r12,#1                ;799
000334  d076              BEQ      |L2.1060|
000336  2f06              CMP      r7,#6                 ;923
000338  d075              BEQ      |L2.1062|
00033a  dc75              BGT      |L2.1064|
00033c  2f06              CMP      r7,#6                 ;923
00033e  d288              BCS      |L2.594|
000340  e8dff007          TBB      [pc,r7]               ;923
000344  fdfcfbfa          DCB      0xfd,0xfc,0xfb,0xfa
000348  f9f8              DCB      0xf9,0xf8
                  |L2.842|
00034a  2f0d              CMP      r7,#0xd               ;620
00034c  d06d              BEQ      |L2.1066|
00034e  dc0a              BGT      |L2.870|
000350  2f0d              CMP      r7,#0xd               ;620
000352  d287              BCS      |L2.612|
000354  e8dff007          TBB      [pc,r7]               ;620
000358  2d3b4044          DCB      0x2d,0x3b,0x40,0x44
00035c  6a7e8389          DCB      0x6a,0x7e,0x83,0x89
000360  97a8acb1          DCB      0x97,0xa8,0xac,0xb1
000364  b500              DCB      0xb5,0x00
                  |L2.870|
000366  2f14              CMP      r7,#0x14              ;620
000368  d072              BEQ      |L2.1104|
00036a  dc08              BGT      |L2.894|
00036c  f1a7070e          SUB      r7,r7,#0xe            ;620
000370  2f06              CMP      r7,#6                 ;620
000372  d286              BCS      |L2.642|
000374  e8dff007          TBB      [pc,r7]               ;620
000378  c3c7cae9          DCB      0xc3,0xc7,0xca,0xe9
00037c  f6ff              DCB      0xf6,0xff
                  |L2.894|
00037e  2f18              CMP      r7,#0x18              ;620
000380  d067              BEQ      |L2.1106|
000382  dc09              BGT      |L2.920|
000384  2f15              CMP      r7,#0x15              ;620
000386  d06e              BEQ      |L2.1126|
000388  2f16              CMP      r7,#0x16              ;620
00038a  d06d              BEQ      |L2.1128|
00038c  2f17              CMP      r7,#0x17              ;620
00038e  d18a              BNE      |L2.678|
000390  f8859001          STRB     r9,[r5,#1]            ;768
000394  70e8              STRB     r0,[r5,#3]            ;769
                  |L2.918|
000396  e686              B        |L2.166|
                  |L2.920|
000398  2f19              CMP      r7,#0x19              ;620
00039a  d072              BEQ      |L2.1154|
00039c  2f63              CMP      r7,#0x63              ;620
00039e  d186              BNE      |L2.686|
0003a0  f1ba0f01          CMP      r10,#1                ;785
0003a4  d06e              BEQ      |L2.1156|
0003a6  2005              MOVS     r0,#5                 ;789
0003a8  71e8              STRB     r0,[r5,#7]            ;789
                  |L2.938|
0003aa  706e              STRB     r6,[r5,#1]            ;792
0003ac  2000              MOVS     r0,#0                 ;793
0003ae  70e8              STRB     r0,[r5,#3]            ;793
                  |L2.944|
0003b0  e679              B        |L2.166|
0003b2  4814              LDR      r0,|L2.1028|
0003b4  4281              CMP      r1,r0                 ;622
0003b6  dd03              BLE      |L2.960|
0003b8  4282              CMP      r2,r0                 ;622
0003ba  dd01              BLE      |L2.960|
0003bc  706b              STRB     r3,[r5,#1]            ;623
0003be  e672              B        |L2.166|
                  |L2.960|
0003c0  4281              CMP      r1,r0                 ;624
0003c2  da8c              BGE      |L2.734|
0003c4  4282              CMP      r2,r0                 ;624
0003c6  da8a              BGE      |L2.734|
0003c8  706c              STRB     r4,[r5,#1]            ;625
0003ca  70ec              STRB     r4,[r5,#3]            ;626
0003cc  e66b              B        |L2.166|
0003ce  f8859001          STRB     r9,[r5,#1]            ;630
0003d2  2002              MOVS     r0,#2                 ;631
0003d4  70e8              STRB     r0,[r5,#3]            ;631
0003d6  e666              B        |L2.166|
0003d8  706c              STRB     r4,[r5,#1]            ;635
0003da  2003              MOVS     r0,#3                 ;636
0003dc  70e8              STRB     r0,[r5,#3]            ;636
                  |L2.990|
0003de  e662              B        |L2.166|
0003e0  706e              STRB     r6,[r5,#1]            ;640
0003e2  2002              MOVS     r0,#2                 ;641
0003e4  f7fffffe          BL       app_calibration
0003e8  4907              LDR      r1,|L2.1032|
0003ea  7008              STRB     r0,[r1,#0]            ;641
0003ec  2800              CMP      r0,#0                 ;642
0003ee  d187              BNE      |L2.768|
0003f0  78e8              LDRB     r0,[r5,#3]            ;643  ; outfireRobotState
0003f2  1c40              ADDS     r0,r0,#1              ;643
0003f4  70e8              STRB     r0,[r5,#3]            ;643
                  |L2.1014|
0003f6  e656              B        |L2.166|
                  |L2.1016|
                          DCD      outfireRobotState
                  |L2.1020|
                          DCD      SRF_04_Data1
                  |L2.1024|
                          DCD      SRF_04_Data2
                  |L2.1028|
                          DCD      0x41300000
                  |L2.1032|
                          DCD      calibrationFinish
                  |L2.1036|
                          DCD      0x41900000
                  |L2.1040|
                          DCD      0x42340000
                  |L2.1044|
                          DCD      0x41f00000
                  |L2.1048|
                          DCD      0x41d00000
                  |L2.1052|
                          DCD      0x420c0000
                  |L2.1056|
                          DCD      0x41c00000
                  |L2.1060|
000424  e0dd              B        |L2.1506|
                  |L2.1062|
000426  e222              B        |L2.2158|
                  |L2.1064|
000428  e1aa              B        |L2.1920|
                  |L2.1066|
00042a  e056              B        |L2.1242|
00042c  706b              STRB     r3,[r5,#1]            ;647
00042e  2001              MOVS     r0,#1                 ;648
000430  f7fffffe          BL       calibrationGostraight
000434  48fe              LDR      r0,|L2.2096|
000436  6881              LDR      r1,[r0,#8]            ;649  ; SRF_04_Data1
000438  48fe              LDR      r0,|L2.2100|
00043a  4281              CMP      r1,r0                 ;649
00043c  daab              BGE      |L2.918|
00043e  49fe              LDR      r1,|L2.2104|
000440  6889              LDR      r1,[r1,#8]            ;649  ; SRF_04_Data2
000442  4281              CMP      r1,r0                 ;649
000444  daa7              BGE      |L2.918|
000446  706c              STRB     r4,[r5,#1]            ;650
000448  78e8              LDRB     r0,[r5,#3]            ;651  ; outfireRobotState
00044a  1c40              ADDS     r0,r0,#1              ;651
00044c  70e8              STRB     r0,[r5,#3]            ;651
                  |L2.1102|
00044e  e62a              B        |L2.166|
                  |L2.1104|
000450  e095              B        |L2.1406|
                  |L2.1106|
000452  e0b5              B        |L2.1472|
000454  f8858001          STRB     r8,[r5,#1]            ;656
000458  2006              MOVS     r0,#6                 ;657
00045a  70e8              STRB     r0,[r5,#3]            ;657
00045c  e623              B        |L2.166|
00045e  706c              STRB     r4,[r5,#1]            ;661
000460  2007              MOVS     r0,#7                 ;662
000462  70e8              STRB     r0,[r5,#3]            ;662
000464  e61f              B        |L2.166|
                  |L2.1126|
000466  e08d              B        |L2.1412|
                  |L2.1128|
000468  e098              B        |L2.1436|
00046a  706e              STRB     r6,[r5,#1]            ;666
00046c  2001              MOVS     r0,#1                 ;667
00046e  f7fffffe          BL       app_calibration
000472  49f2              LDR      r1,|L2.2108|
000474  7008              STRB     r0,[r1,#0]            ;667
000476  2800              CMP      r0,#0                 ;668
000478  d18d              BNE      |L2.918|
00047a  78e8              LDRB     r0,[r5,#3]            ;669  ; outfireRobotState
00047c  1c40              ADDS     r0,r0,#1              ;669
00047e  70e8              STRB     r0,[r5,#3]            ;669
                  |L2.1152|
000480  e611              B        |L2.166|
                  |L2.1154|
000482  e0a0              B        |L2.1478|
                  |L2.1156|
000484  e0aa              B        |L2.1500|
000486  706b              STRB     r3,[r5,#1]            ;673
000488  2001              MOVS     r0,#1                 ;674
00048a  f7fffffe          BL       calibrationGostraight
00048e  48e8              LDR      r0,|L2.2096|
000490  6881              LDR      r1,[r0,#8]            ;675  ; SRF_04_Data1
000492  48eb              LDR      r0,|L2.2112|
000494  4281              CMP      r1,r0                 ;675
000496  da8b              BGE      |L2.944|
000498  49e7              LDR      r1,|L2.2104|
00049a  6889              LDR      r1,[r1,#8]            ;675  ; SRF_04_Data2
00049c  4281              CMP      r1,r0                 ;675
00049e  da87              BGE      |L2.944|
0004a0  78e8              LDRB     r0,[r5,#3]            ;676  ; outfireRobotState
0004a2  1c40              ADDS     r0,r0,#1              ;676
0004a4  70e8              STRB     r0,[r5,#3]            ;676
                  |L2.1190|
0004a6  e5fe              B        |L2.166|
0004a8  706c              STRB     r4,[r5,#1]            ;681
0004aa  200a              MOVS     r0,#0xa               ;682
0004ac  70e8              STRB     r0,[r5,#3]            ;682
0004ae  e5fa              B        |L2.166|
0004b0  f8858001          STRB     r8,[r5,#1]            ;686
0004b4  200b              MOVS     r0,#0xb               ;687
0004b6  70e8              STRB     r0,[r5,#3]            ;687
                  |L2.1208|
0004b8  e5f5              B        |L2.166|
0004ba  706c              STRB     r4,[r5,#1]            ;691
0004bc  200c              MOVS     r0,#0xc               ;692
0004be  70e8              STRB     r0,[r5,#3]            ;692
                  |L2.1216|
0004c0  e5f1              B        |L2.166|
0004c2  706e              STRB     r6,[r5,#1]            ;696
0004c4  2001              MOVS     r0,#1                 ;697
0004c6  f7fffffe          BL       app_calibration
0004ca  49dc              LDR      r1,|L2.2108|
0004cc  7008              STRB     r0,[r1,#0]            ;697
0004ce  2800              CMP      r0,#0                 ;698
0004d0  d185              BNE      |L2.990|
0004d2  78e8              LDRB     r0,[r5,#3]            ;699  ; outfireRobotState
0004d4  1c40              ADDS     r0,r0,#1              ;699
0004d6  70e8              STRB     r0,[r5,#3]            ;699
0004d8  e5e5              B        |L2.166|
                  |L2.1242|
0004da  706b              STRB     r3,[r5,#1]            ;703
0004dc  2001              MOVS     r0,#1                 ;704
0004de  f7fffffe          BL       calibrationGostraight
0004e2  48d3              LDR      r0,|L2.2096|
0004e4  6881              LDR      r1,[r0,#8]            ;705  ; SRF_04_Data1
0004e6  48d7              LDR      r0,|L2.2116|
0004e8  4281              CMP      r1,r0                 ;705
0004ea  da84              BGE      |L2.1014|
0004ec  49d2              LDR      r1,|L2.2104|
0004ee  6889              LDR      r1,[r1,#8]            ;705  ; SRF_04_Data2
0004f0  4281              CMP      r1,r0                 ;705
0004f2  daac              BGE      |L2.1102|
0004f4  706c              STRB     r4,[r5,#1]            ;706
0004f6  78e8              LDRB     r0,[r5,#3]            ;707  ; outfireRobotState
0004f8  1c40              ADDS     r0,r0,#1              ;707
0004fa  70e8              STRB     r0,[r5,#3]            ;707
                  |L2.1276|
0004fc  e5d3              B        |L2.166|
0004fe  210d              MOVS     r1,#0xd               ;711
000500  7069              STRB     r1,[r5,#1]            ;711
000502  70e8              STRB     r0,[r5,#3]            ;712
000504  e5cf              B        |L2.166|
000506  706c              STRB     r4,[r5,#1]            ;716
000508  70e8              STRB     r0,[r5,#3]            ;717
00050a  e5cc              B        |L2.166|
00050c  f7fffffe          BL       app_findFire
000510  49ca              LDR      r1,|L2.2108|
000512  7008              STRB     r0,[r1,#0]            ;721
000514  706e              STRB     r6,[r5,#1]            ;722
000516  2800              CMP      r0,#0                 ;723
000518  d199              BNE      |L2.1102|
00051a  48c5              LDR      r0,|L2.2096|
00051c  6881              LDR      r1,[r0,#8]            ;723  ; SRF_04_Data1
00051e  48ca              LDR      r0,|L2.2120|
000520  4281              CMP      r1,r0                 ;723
000522  da94              BGE      |L2.1102|
000524  49c4              LDR      r1,|L2.2104|
000526  6889              LDR      r1,[r1,#8]            ;723  ; SRF_04_Data2
000528  4281              CMP      r1,r0                 ;723
00052a  da90              BGE      |L2.1102|
00052c  706c              STRB     r4,[r5,#1]            ;724
00052e  78e8              LDRB     r0,[r5,#3]            ;725  ; outfireRobotState
000530  1c40              ADDS     r0,r0,#1              ;725
000532  e008              B        |L2.1350|
000534  e16c              B        |L2.2064|
000536  e159              B        |L2.2028|
000538  e14c              B        |L2.2004|
00053a  e147              B        |L2.1996|
00053c  e141              B        |L2.1986|
00053e  e132              B        |L2.1958|
000540  e019              B        |L2.1398|
000542  e00f              B        |L2.1380|
000544  e001              B        |L2.1354|
                  |L2.1350|
000546  70e8              STRB     r0,[r5,#3]            ;725
                  |L2.1352|
000548  e5ad              B        |L2.166|
                  |L2.1354|
00054a  706e              STRB     r6,[r5,#1]            ;729
00054c  f7fffffe          BL       app_fan
000550  f7fffffe          BL       checkFire
000554  49b9              LDR      r1,|L2.2108|
000556  7008              STRB     r0,[r1,#0]            ;731
000558  2800              CMP      r0,#0                 ;732
00055a  d191              BNE      |L2.1152|
00055c  78e8              LDRB     r0,[r5,#3]            ;733  ; outfireRobotState
00055e  1c40              ADDS     r0,r0,#1              ;733
000560  70e8              STRB     r0,[r5,#3]            ;733
                  |L2.1378|
000562  e5a0              B        |L2.166|
                  |L2.1380|
000564  2103              MOVS     r1,#3                 ;737
000566  f44f7016          MOV      r0,#0x258             ;737
00056a  f7fffffe          BL       app_goBack
00056e  78e8              LDRB     r0,[r5,#3]            ;738  ; outfireRobotState
000570  1c40              ADDS     r0,r0,#1              ;738
000572  70e8              STRB     r0,[r5,#3]            ;738
000574  e597              B        |L2.166|
                  |L2.1398|
000576  2111              MOVS     r1,#0x11              ;742
000578  7069              STRB     r1,[r5,#1]            ;742
00057a  70e8              STRB     r0,[r5,#3]            ;743
00057c  e593              B        |L2.166|
                  |L2.1406|
00057e  706c              STRB     r4,[r5,#1]            ;747
000580  70e8              STRB     r0,[r5,#3]            ;748
000582  e590              B        |L2.166|
                  |L2.1412|
000584  706e              STRB     r6,[r5,#1]            ;752
000586  2001              MOVS     r0,#1                 ;753
000588  f7fffffe          BL       app_calibration
00058c  49ab              LDR      r1,|L2.2108|
00058e  7008              STRB     r0,[r1,#0]            ;753
000590  2800              CMP      r0,#0                 ;754
000592  d188              BNE      |L2.1190|
000594  78e8              LDRB     r0,[r5,#3]            ;755  ; outfireRobotState
000596  1c40              ADDS     r0,r0,#1              ;755
000598  70e8              STRB     r0,[r5,#3]            ;755
                  |L2.1434|
00059a  e584              B        |L2.166|
                  |L2.1436|
00059c  706b              STRB     r3,[r5,#1]            ;759
00059e  2001              MOVS     r0,#1                 ;760
0005a0  f7fffffe          BL       calibrationGostraight
0005a4  48a2              LDR      r0,|L2.2096|
0005a6  6881              LDR      r1,[r0,#8]            ;761  ; SRF_04_Data1
0005a8  48a8              LDR      r0,|L2.2124|
0005aa  4281              CMP      r1,r0                 ;761
0005ac  da84              BGE      |L2.1208|
0005ae  49a2              LDR      r1,|L2.2104|
0005b0  6889              LDR      r1,[r1,#8]            ;761  ; SRF_04_Data2
0005b2  4281              CMP      r1,r0                 ;761
0005b4  da84              BGE      |L2.1216|
0005b6  706c              STRB     r4,[r5,#1]            ;762
0005b8  78e8              LDRB     r0,[r5,#3]            ;763  ; outfireRobotState
0005ba  1c40              ADDS     r0,r0,#1              ;763
0005bc  70e8              STRB     r0,[r5,#3]            ;763
                  |L2.1470|
0005be  e572              B        |L2.166|
                  |L2.1472|
0005c0  706c              STRB     r4,[r5,#1]            ;773
0005c2  70e8              STRB     r0,[r5,#3]            ;774
0005c4  e56f              B        |L2.166|
                  |L2.1478|
0005c6  706e              STRB     r6,[r5,#1]            ;778
0005c8  2002              MOVS     r0,#2                 ;779
0005ca  f7fffffe          BL       app_calibration
0005ce  499b              LDR      r1,|L2.2108|
0005d0  7008              STRB     r0,[r1,#0]            ;779
0005d2  2800              CMP      r0,#0                 ;780
0005d4  d192              BNE      |L2.1276|
0005d6  2063              MOVS     r0,#0x63              ;781
0005d8  70e8              STRB     r0,[r5,#3]            ;781
                  |L2.1498|
0005da  e564              B        |L2.166|
                  |L2.1500|
0005dc  2009              MOVS     r0,#9                 ;786
0005de  71e8              STRB     r0,[r5,#7]            ;786
0005e0  e6e3              B        |L2.938|
                  |L2.1506|
0005e2  2f09              CMP      r7,#9                 ;800
0005e4  d075              BEQ      |L2.1746|
0005e6  dc08              BGT      |L2.1530|
0005e8  2f09              CMP      r7,#9                 ;800
0005ea  d287              BCS      |L2.1276|
0005ec  e8dff007          TBB      [pc,r7]               ;800
0005f0  27353a3e          DCB      0x27,0x35,0x3a,0x3e
0005f4  4a5c6165          DCB      0x4a,0x5c,0x61,0x65
0005f8  7500              DCB      0x75,0x00
                  |L2.1530|
0005fa  2f0e              CMP      r7,#0xe               ;800
0005fc  d06a              BEQ      |L2.1748|
0005fe  dc0f              BGT      |L2.1568|
000600  2f0a              CMP      r7,#0xa               ;800
000602  d068              BEQ      |L2.1750|
000604  2f0b              CMP      r7,#0xb               ;800
000606  d067              BEQ      |L2.1752|
000608  2f0c              CMP      r7,#0xc               ;800
00060a  d077              BEQ      |L2.1788|
00060c  2f0d              CMP      r7,#0xd               ;800
00060e  d19b              BNE      |L2.1352|
000610  2103              MOVS     r1,#3                 ;887
000612  2096              MOVS     r0,#0x96              ;887
000614  f7fffffe          BL       app_goBack
000618  78e8              LDRB     r0,[r5,#3]            ;888  ; outfireRobotState
00061a  1c40              ADDS     r0,r0,#1              ;888
00061c  70e8              STRB     r0,[r5,#3]            ;888
                  |L2.1566|
00061e  e542              B        |L2.166|
                  |L2.1568|
000620  2f0f              CMP      r7,#0xf               ;800
000622  d06c              BEQ      |L2.1790|
000624  2f10              CMP      r7,#0x10              ;800
000626  d06b              BEQ      |L2.1792|
000628  2f63              CMP      r7,#0x63              ;800
00062a  d18d              BNE      |L2.1352|
00062c  f1bb0f01          CMP      r11,#1                ;909
000630  d067              BEQ      |L2.1794|
000632  2005              MOVS     r0,#5                 ;913
000634  71e8              STRB     r0,[r5,#7]            ;913
                  |L2.1590|
000636  706e              STRB     r6,[r5,#1]            ;916
000638  2000              MOVS     r0,#0                 ;917
00063a  70e8              STRB     r0,[r5,#3]            ;917
                  |L2.1596|
00063c  e533              B        |L2.166|
00063e  4884              LDR      r0,|L2.2128|
000640  4281              CMP      r1,r0                 ;802
000642  dd03              BLE      |L2.1612|
000644  4282              CMP      r2,r0                 ;802
000646  dd01              BLE      |L2.1612|
000648  706b              STRB     r3,[r5,#1]            ;803
00064a  e52c              B        |L2.166|
                  |L2.1612|
00064c  4281              CMP      r1,r0                 ;804
00064e  da88              BGE      |L2.1378|
000650  4282              CMP      r2,r0                 ;804
000652  da86              BGE      |L2.1378|
000654  706c              STRB     r4,[r5,#1]            ;805
000656  70ec              STRB     r4,[r5,#3]            ;806
                  |L2.1624|
000658  e525              B        |L2.166|
00065a  f8859001          STRB     r9,[r5,#1]            ;810
00065e  2002              MOVS     r0,#2                 ;811
000660  70e8              STRB     r0,[r5,#3]            ;811
000662  e520              B        |L2.166|
000664  706c              STRB     r4,[r5,#1]            ;815
000666  2003              MOVS     r0,#3                 ;816
000668  70e8              STRB     r0,[r5,#3]            ;816
00066a  e51c              B        |L2.166|
00066c  706e              STRB     r6,[r5,#1]            ;820
00066e  2002              MOVS     r0,#2                 ;821
000670  f7fffffe          BL       app_calibration
000674  4971              LDR      r1,|L2.2108|
000676  7008              STRB     r0,[r1,#0]            ;821
000678  2800              CMP      r0,#0                 ;822
00067a  d18e              BNE      |L2.1434|
00067c  78e8              LDRB     r0,[r5,#3]            ;823  ; outfireRobotState
00067e  1c40              ADDS     r0,r0,#1              ;823
000680  70e8              STRB     r0,[r5,#3]            ;823
                  |L2.1666|
000682  e510              B        |L2.166|
000684  706b              STRB     r3,[r5,#1]            ;827
000686  2001              MOVS     r0,#1                 ;828
000688  f7fffffe          BL       calibrationGostraight
00068c  4868              LDR      r0,|L2.2096|
00068e  6881              LDR      r1,[r0,#8]            ;829  ; SRF_04_Data1
000690  4868              LDR      r0,|L2.2100|
000692  4281              CMP      r1,r0                 ;829
000694  da93              BGE      |L2.1470|
000696  4968              LDR      r1,|L2.2104|
000698  6889              LDR      r1,[r1,#8]            ;829  ; SRF_04_Data2
00069a  4281              CMP      r1,r0                 ;829
00069c  da8f              BGE      |L2.1470|
00069e  706c              STRB     r4,[r5,#1]            ;830
0006a0  78e8              LDRB     r0,[r5,#3]            ;831  ; outfireRobotState
0006a2  1c40              ADDS     r0,r0,#1              ;831
0006a4  70e8              STRB     r0,[r5,#3]            ;831
                  |L2.1702|
0006a6  e4fe              B        |L2.166|
0006a8  f8858001          STRB     r8,[r5,#1]            ;836
0006ac  2006              MOVS     r0,#6                 ;837
0006ae  70e8              STRB     r0,[r5,#3]            ;837
                  |L2.1712|
0006b0  e4f9              B        |L2.166|
0006b2  706c              STRB     r4,[r5,#1]            ;841
0006b4  2007              MOVS     r0,#7                 ;842
0006b6  70e8              STRB     r0,[r5,#3]            ;842
0006b8  e4f5              B        |L2.166|
0006ba  706e              STRB     r6,[r5,#1]            ;846
0006bc  2001              MOVS     r0,#1                 ;847
0006be  f7fffffe          BL       app_calibration
0006c2  495e              LDR      r1,|L2.2108|
0006c4  7008              STRB     r0,[r1,#0]            ;847
0006c6  2800              CMP      r0,#0                 ;848
0006c8  d187              BNE      |L2.1498|
0006ca  78e8              LDRB     r0,[r5,#3]            ;849  ; outfireRobotState
0006cc  1c40              ADDS     r0,r0,#1              ;849
0006ce  70e8              STRB     r0,[r5,#3]            ;849
                  |L2.1744|
0006d0  e4e9              B        |L2.166|
                  |L2.1746|
0006d2  e017              B        |L2.1796|
                  |L2.1748|
0006d4  e03f              B        |L2.1878|
                  |L2.1750|
0006d6  e018              B        |L2.1802|
                  |L2.1752|
0006d8  e01b              B        |L2.1810|
0006da  706b              STRB     r3,[r5,#1]            ;853
0006dc  2001              MOVS     r0,#1                 ;854
0006de  f7fffffe          BL       calibrationGostraight
0006e2  4853              LDR      r0,|L2.2096|
0006e4  6881              LDR      r1,[r0,#8]            ;855  ; SRF_04_Data1
0006e6  485b              LDR      r0,|L2.2132|
0006e8  4281              CMP      r1,r0                 ;855
0006ea  da98              BGE      |L2.1566|
0006ec  4952              LDR      r1,|L2.2104|
0006ee  6889              LDR      r1,[r1,#8]            ;855  ; SRF_04_Data2
0006f0  4281              CMP      r1,r0                 ;855
0006f2  da94              BGE      |L2.1566|
0006f4  78e8              LDRB     r0,[r5,#3]            ;856  ; outfireRobotState
0006f6  1c40              ADDS     r0,r0,#1              ;856
0006f8  70e8              STRB     r0,[r5,#3]            ;856
                  |L2.1786|
0006fa  e4d4              B        |L2.166|
                  |L2.1788|
0006fc  e01e              B        |L2.1852|
                  |L2.1790|
0006fe  e02e              B        |L2.1886|
                  |L2.1792|
000700  e030              B        |L2.1892|
                  |L2.1794|
000702  e03a              B        |L2.1914|
                  |L2.1796|
000704  706c              STRB     r4,[r5,#1]            ;861
000706  70e8              STRB     r0,[r5,#3]            ;862
                  |L2.1800|
000708  e4cd              B        |L2.166|
                  |L2.1802|
00070a  210c              MOVS     r1,#0xc               ;866
00070c  7069              STRB     r1,[r5,#1]            ;866
00070e  70e8              STRB     r0,[r5,#3]            ;867
                  |L2.1808|
000710  e4c9              B        |L2.166|
                  |L2.1810|
000712  f7fffffe          BL       app_findFire
000716  4949              LDR      r1,|L2.2108|
000718  7008              STRB     r0,[r1,#0]            ;871
00071a  706e              STRB     r6,[r5,#1]            ;872
00071c  2800              CMP      r0,#0                 ;873
00071e  d18d              BNE      |L2.1596|
000720  4843              LDR      r0,|L2.2096|
000722  6881              LDR      r1,[r0,#8]            ;873  ; SRF_04_Data1
000724  4847              LDR      r0,|L2.2116|
000726  4281              CMP      r1,r0                 ;873
000728  da88              BGE      |L2.1596|
00072a  4943              LDR      r1,|L2.2104|
00072c  6889              LDR      r1,[r1,#8]            ;873  ; SRF_04_Data2
00072e  4281              CMP      r1,r0                 ;873
000730  da84              BGE      |L2.1596|
000732  706c              STRB     r4,[r5,#1]            ;874
000734  78e8              LDRB     r0,[r5,#3]            ;875  ; outfireRobotState
000736  1c40              ADDS     r0,r0,#1              ;875
000738  70e8              STRB     r0,[r5,#3]            ;875
                  |L2.1850|
00073a  e4b4              B        |L2.166|
                  |L2.1852|
00073c  706e              STRB     r6,[r5,#1]            ;879
00073e  f7fffffe          BL       app_fan
000742  f7fffffe          BL       checkFire
000746  493d              LDR      r1,|L2.2108|
000748  7008              STRB     r0,[r1,#0]            ;881
00074a  2800              CMP      r0,#0                 ;882
00074c  d184              BNE      |L2.1624|
00074e  78e8              LDRB     r0,[r5,#3]            ;883  ; outfireRobotState
000750  1c40              ADDS     r0,r0,#1              ;883
000752  70e8              STRB     r0,[r5,#3]            ;883
000754  e4a7              B        |L2.166|
                  |L2.1878|
000756  2110              MOVS     r1,#0x10              ;892
000758  7069              STRB     r1,[r5,#1]            ;892
00075a  70e8              STRB     r0,[r5,#3]            ;893
00075c  e4a3              B        |L2.166|
                  |L2.1886|
00075e  706c              STRB     r4,[r5,#1]            ;897
000760  70e8              STRB     r0,[r5,#3]            ;898
000762  e4a0              B        |L2.166|
                  |L2.1892|
000764  706e              STRB     r6,[r5,#1]            ;902
000766  2002              MOVS     r0,#2                 ;903
000768  f7fffffe          BL       app_calibration
00076c  4933              LDR      r1,|L2.2108|
00076e  7008              STRB     r0,[r1,#0]            ;903
000770  2800              CMP      r0,#0                 ;904
000772  d186              BNE      |L2.1666|
000774  2063              MOVS     r0,#0x63              ;905
000776  70e8              STRB     r0,[r5,#3]            ;905
000778  e495              B        |L2.166|
                  |L2.1914|
00077a  2009              MOVS     r0,#9                 ;910
00077c  71e8              STRB     r0,[r5,#7]            ;910
00077e  e75a              B        |L2.1590|
                  |L2.1920|
000780  2f09              CMP      r7,#9                 ;923
000782  d06b              BEQ      |L2.2140|
000784  dc07              BGT      |L2.1942|
000786  2f07              CMP      r7,#7                 ;923
000788  d069              BEQ      |L2.2142|
00078a  2f08              CMP      r7,#8                 ;923
00078c  d18b              BNE      |L2.1702|
00078e  2110              MOVS     r1,#0x10              ;980
000790  7069              STRB     r1,[r5,#1]            ;980
000792  70e8              STRB     r0,[r5,#3]            ;981
                  |L2.1940|
000794  e487              B        |L2.166|
                  |L2.1942|
000796  2f0a              CMP      r7,#0xa               ;923
000798  d076              BEQ      |L2.2184|
00079a  2f63              CMP      r7,#0x63              ;923
00079c  d188              BNE      |L2.1712|
00079e  7e68              LDRB     r0,[r5,#0x19]         ;997  ; outfireRobotState
0007a0  2801              CMP      r0,#1                 ;997
0007a2  d072              BEQ      |L2.2186|
0007a4  e08a              B        |L2.2236|
                  |L2.1958|
0007a6  482a              LDR      r0,|L2.2128|
0007a8  4281              CMP      r1,r0                 ;925
0007aa  dd03              BLE      |L2.1972|
0007ac  4282              CMP      r2,r0                 ;925
0007ae  dd01              BLE      |L2.1972|
0007b0  706b              STRB     r3,[r5,#1]            ;926
0007b2  e478              B        |L2.166|
                  |L2.1972|
0007b4  4281              CMP      r1,r0                 ;927
0007b6  da8b              BGE      |L2.1744|
0007b8  4282              CMP      r2,r0                 ;927
0007ba  da89              BGE      |L2.1744|
0007bc  706c              STRB     r4,[r5,#1]            ;928
0007be  70ec              STRB     r4,[r5,#3]            ;929
0007c0  e471              B        |L2.166|
                  |L2.1986|
0007c2  f8859001          STRB     r9,[r5,#1]            ;933
0007c6  2002              MOVS     r0,#2                 ;934
0007c8  70e8              STRB     r0,[r5,#3]            ;934
0007ca  e46c              B        |L2.166|
                  |L2.1996|
0007cc  706c              STRB     r4,[r5,#1]            ;938
0007ce  2003              MOVS     r0,#3                 ;939
0007d0  70e8              STRB     r0,[r5,#3]            ;939
0007d2  e468              B        |L2.166|
                  |L2.2004|
0007d4  706e              STRB     r6,[r5,#1]            ;943
0007d6  2002              MOVS     r0,#2                 ;944
0007d8  f7fffffe          BL       app_calibration
0007dc  4917              LDR      r1,|L2.2108|
0007de  7008              STRB     r0,[r1,#0]            ;944
0007e0  2800              CMP      r0,#0                 ;945
0007e2  d18a              BNE      |L2.1786|
0007e4  78e8              LDRB     r0,[r5,#3]            ;946  ; outfireRobotState
0007e6  1c40              ADDS     r0,r0,#1              ;946
0007e8  70e8              STRB     r0,[r5,#3]            ;946
0007ea  e45c              B        |L2.166|
                  |L2.2028|
0007ec  706b              STRB     r3,[r5,#1]            ;950
0007ee  2001              MOVS     r0,#1                 ;951
0007f0  f7fffffe          BL       calibrationGostraight
0007f4  480e              LDR      r0,|L2.2096|
0007f6  6881              LDR      r1,[r0,#8]            ;952  ; SRF_04_Data1
0007f8  4814              LDR      r0,|L2.2124|
0007fa  4281              CMP      r1,r0                 ;952
0007fc  da84              BGE      |L2.1800|
0007fe  490e              LDR      r1,|L2.2104|
000800  6889              LDR      r1,[r1,#8]            ;952  ; SRF_04_Data2
000802  4281              CMP      r1,r0                 ;952
000804  da84              BGE      |L2.1808|
000806  706c              STRB     r4,[r5,#1]            ;953
000808  78e8              LDRB     r0,[r5,#3]            ;954  ; outfireRobotState
00080a  1c40              ADDS     r0,r0,#1              ;954
00080c  70e8              STRB     r0,[r5,#3]            ;954
00080e  e44a              B        |L2.166|
                  |L2.2064|
000810  f7fffffe          BL       app_findFire
000814  4909              LDR      r1,|L2.2108|
000816  7008              STRB     r0,[r1,#0]            ;959
000818  706e              STRB     r6,[r5,#1]            ;960
00081a  2800              CMP      r0,#0                 ;961
00081c  d18d              BNE      |L2.1850|
00081e  4804              LDR      r0,|L2.2096|
000820  6881              LDR      r1,[r0,#8]            ;961  ; SRF_04_Data1
000822  480d              LDR      r0,|L2.2136|
000824  4281              CMP      r1,r0                 ;961
000826  da88              BGE      |L2.1850|
000828  4903              LDR      r1,|L2.2104|
00082a  6889              LDR      r1,[r1,#8]            ;961  ; SRF_04_Data2
00082c  4281              CMP      r1,r0                 ;961
00082e  e017              B        |L2.2144|
                  |L2.2096|
                          DCD      SRF_04_Data1
                  |L2.2100|
                          DCD      0x41900000
                  |L2.2104|
                          DCD      SRF_04_Data2
                  |L2.2108|
                          DCD      calibrationFinish
                  |L2.2112|
                          DCD      0x42340000
                  |L2.2116|
                          DCD      0x41f00000
                  |L2.2120|
                          DCD      0x41d00000
                  |L2.2124|
                          DCD      0x41a00000
                  |L2.2128|
                          DCD      0x41300000
                  |L2.2132|
                          DCD      0x420c0000
                  |L2.2136|
                          DCD      0x41e00000
                  |L2.2140|
00085c  e01e              B        |L2.2204|
                  |L2.2142|
00085e  e015              B        |L2.2188|
                  |L2.2144|
000860  f6bfaf6b          BGE      |L2.1850|
000864  706c              STRB     r4,[r5,#1]            ;962
000866  78e8              LDRB     r0,[r5,#3]            ;963  ; outfireRobotState
000868  1c40              ADDS     r0,r0,#1              ;963
00086a  70e8              STRB     r0,[r5,#3]            ;963
00086c  e41b              B        |L2.166|
                  |L2.2158|
00086e  f7fffffe          BL       app_fan
000872  706e              STRB     r6,[r5,#1]            ;968
000874  f7fffffe          BL       checkFire
000878  4912              LDR      r1,|L2.2244|
00087a  7008              STRB     r0,[r1,#0]            ;969
00087c  2800              CMP      r0,#0                 ;970
00087e  d189              BNE      |L2.1940|
000880  78e8              LDRB     r0,[r5,#3]            ;971  ; outfireRobotState
000882  1c40              ADDS     r0,r0,#1              ;971
000884  70e8              STRB     r0,[r5,#3]            ;971
000886  e40e              B        |L2.166|
                  |L2.2184|
000888  e00b              B        |L2.2210|
                  |L2.2186|
00088a  e015              B        |L2.2232|
                  |L2.2188|
00088c  2103              MOVS     r1,#3                 ;975
00088e  20b4              MOVS     r0,#0xb4              ;975
000890  f7fffffe          BL       app_goBack
000894  78e8              LDRB     r0,[r5,#3]            ;976  ; outfireRobotState
000896  1c40              ADDS     r0,r0,#1              ;976
000898  70e8              STRB     r0,[r5,#3]            ;976
00089a  e404              B        |L2.166|
                  |L2.2204|
00089c  706c              STRB     r4,[r5,#1]            ;985
00089e  70e8              STRB     r0,[r5,#3]            ;986
                  |L2.2208|
0008a0  e414              B        |L2.204|
                  |L2.2210|
0008a2  706e              STRB     r6,[r5,#1]            ;990
0008a4  2002              MOVS     r0,#2                 ;991
0008a6  f7fffffe          BL       app_calibration
0008aa  4906              LDR      r1,|L2.2244|
0008ac  7008              STRB     r0,[r1,#0]            ;991
0008ae  2800              CMP      r0,#0                 ;992
0008b0  d1f6              BNE      |L2.2208|
0008b2  2063              MOVS     r0,#0x63              ;993
0008b4  70e8              STRB     r0,[r5,#3]            ;993
0008b6  e409              B        |L2.204|
                  |L2.2232|
0008b8  2009              MOVS     r0,#9                 ;998
0008ba  71e8              STRB     r0,[r5,#7]            ;998
                  |L2.2236|
0008bc  706e              STRB     r6,[r5,#1]            ;1000
0008be  2000              MOVS     r0,#0                 ;1001
0008c0  70e8              STRB     r0,[r5,#3]            ;1001
0008c2  e403              B        |L2.204|
;;;1008   		
                          ENDP

                  |L2.2244|
                          DCD      calibrationFinish

                          AREA ||i.app_findSeventhFire||, CODE, READONLY, ALIGN=2

                  app_findSeventhFire PROC
;;;1009   				
;;;1010   void app_findSeventhFire(void){
000000  e92d5ff0          PUSH     {r4-r12,lr}
;;;1011   	if(outfireRobotState.fireArray[SENVENTH_FIRE] == 1){
000004  4c92              LDR      r4,|L3.592|
000006  2501              MOVS     r5,#1
000008  4620              MOV      r0,r4
00000a  f894e010          LDRB     lr,[r4,#0x10]  ; outfireRobotState
;;;1012   		switch(outfireRobotState.workStep){
00000e  78c0              LDRB     r0,[r0,#3]
000010  2303              MOVS     r3,#3
;;;1013   			case 0:{
;;;1014   				calibrationGostraight(LEFT);
;;;1015   				if(SRF_04_Data1.getDistance <26 && SRF_04_Data2.getDistance <26){
;;;1016   					outfireRobotState.workStep++;
000012  1c41              ADDS     r1,r0,#1
000014  2202              MOVS     r2,#2                 ;1012
000016  4f8f              LDR      r7,|L3.596|
000018  f8df823c          LDR      r8,|L3.600|
;;;1017   				}
;;;1018   				break;
;;;1019   			}
;;;1020   			case 1:{
;;;1021   				outfireRobotState.moveWays =REVERSE_LEFT_TURN_45;
;;;1022   				 outfireRobotState.workStep++;
;;;1023   				break;
;;;1024   			}
;;;1025   			case 2:{
;;;1026   				calibrationFinish = app_findFire();
00001c  f8df923c          LDR      r9,|L3.604|
;;;1027   				outfireRobotState.moveWays = OTHER;
000020  2614              MOVS     r6,#0x14
000022  f8dfa23c          LDR      r10,|L3.608|
000026  f04f0c00          MOV      r12,#0                ;1011
;;;1028   				if(calibrationFinish == CALIBRATION_FINISHED && SRF_04_Data1.getDistance <27 && SRF_04_Data2.getDistance <27){
;;;1029   					outfireRobotState.moveWays = STOP;
;;;1030   					outfireRobotState.workStep++;
;;;1031   				}break;
;;;1032   			}
;;;1033   			case 3:{
;;;1034   				app_fan();
;;;1035   				outfireRobotState.moveWays = OTHER;
;;;1036   				calibrationFinish = checkFire();
;;;1037   				if(calibrationFinish == CALIBRATION_FINISHED){
;;;1038   					outfireRobotState.workStep++;
;;;1039   				}break;
;;;1040   			}
;;;1041   			case 4:{
;;;1042   				app_goBack(800,NO_TURN);
;;;1043   				outfireRobotState.workStep++;
;;;1044   				break;
;;;1045   			}
;;;1046   			case 5:{
;;;1047   				outfireRobotState.moveWays = REVERSE_LEFT_TURN_135;
;;;1048   				outfireRobotState.workStep++;
;;;1049   				break;
;;;1050   			}
;;;1051   			case 6:{
;;;1052   				outfireRobotState.moveWays = STOP;
;;;1053   				vTaskDelay(200);
;;;1054   				outfireRobotState.workStep++;
;;;1055   				break;
;;;1056   			}
;;;1057   			case 7:{
;;;1058   				calibrationGostraight(RIGHT);
;;;1059   				if(SRF_04_Data1.getDistance <15 && SRF_04_Data2.getDistance <15 ){
;;;1060   					outfireRobotState.workStep++;
;;;1061   				}
;;;1062   				break;
;;;1063   			}
;;;1064   			case 8:{
;;;1065   				outfireRobotState.moveWays = STOP;
;;;1066   				outfireRobotState.workStep++;
;;;1067   				break;
;;;1068   			}
;;;1069   			case 9:{
;;;1070   				outfireRobotState.moveWays = REVERSE_LEFT_TURN_90;
;;;1071   				outfireRobotState.workStep++;
;;;1072   				break;
;;;1073   			}
;;;1074   			case 10:{
;;;1075   				outfireRobotState.moveWays = STOP;
;;;1076   				outfireRobotState.workStep++;
;;;1077   				break;
;;;1078   			}
;;;1079   			case 11:{
;;;1080   				outfireRobotState.moveWays = OTHER;
;;;1081   				calibrationFinish = app_calibration(RIGHT);
;;;1082   				if(calibrationFinish == CALIBRATION_FINISHED){
;;;1083   					outfireRobotState.workStep++;
;;;1084   				}break;
;;;1085   			}
;;;1086   			case 12:{
;;;1087   				outfireRobotState.moveWays = GO_STRAIGHT;
;;;1088   				calibrationGostraight(RIGHT);
;;;1089   				if(SRF_04_Data1.getDistance <10 && SRF_04_Data2.getDistance <10){
;;;1090   					outfireRobotState.moveWays = STOP;
;;;1091   					outfireRobotState.workStep++;
;;;1092   				}break;
;;;1093   			}
;;;1094   			case 13:{
;;;1095   				outfireRobotState.moveWays = OTHER;
;;;1096   				outfireRobotState.workStep = 99;
00002a  f04f0b63          MOV      r11,#0x63
00002e  b2c9              UXTB     r1,r1                 ;1016
000030  f1be0f01          CMP      lr,#1                 ;1011
000034  d009              BEQ      |L3.74|
;;;1097   				break;
;;;1098   			}
;;;1099   			case 99:{
;;;1100   				if(outfireRobotState.returnFlag[SENVENTH_FIRE] == 1){
;;;1101   					outfireRobotState.robotTaskstep = RETURN;
;;;1102   				}else{
;;;1103   					outfireRobotState.robotTaskstep = FOURTH_FIRE;
;;;1104   				}
;;;1105   				outfireRobotState.moveWays = OTHER;
;;;1106   				outfireRobotState.workStep = 0;
;;;1107   				vTaskDelay(200);
;;;1108   				break;
;;;1109   			}
;;;1110   		}
;;;1111   	}else{
;;;1112   		switch(outfireRobotState.workStep){
000036  2805              CMP      r0,#5
000038  d072              BEQ      |L3.288|
00003a  dc72              BGT      |L3.290|
00003c  2805              CMP      r0,#5
00003e  d21a              BCS      |L3.118|
000040  e8dff000          TBB      [pc,r0]
000044  c7d6dadd          DCB      0xc7,0xd6,0xda,0xdd
000048  e900              DCB      0xe9,0x00
                  |L3.74|
00004a  2807              CMP      r0,#7                 ;1012
00004c  d073              BEQ      |L3.310|
00004e  dc07              BGT      |L3.96|
000050  2807              CMP      r0,#7                 ;1012
000052  d210              BCS      |L3.118|
000054  e8dff000          TBB      [pc,r0]               ;1012
000058  23313549          DCB      0x23,0x31,0x35,0x49
00005c  565f6700          DCB      0x56,0x5f,0x67,0x00
                  |L3.96|
000060  280b              CMP      r0,#0xb               ;1012
000062  d077              BEQ      |L3.340|
000064  dc09              BGT      |L3.122|
000066  2808              CMP      r0,#8                 ;1012
000068  d07a              BEQ      |L3.352|
00006a  2809              CMP      r0,#9                 ;1012
00006c  d07b              BEQ      |L3.358|
00006e  280a              CMP      r0,#0xa               ;1012
000070  d101              BNE      |L3.118|
000072  7065              STRB     r5,[r4,#1]            ;1075
000074  70e1              STRB     r1,[r4,#3]            ;1076
                  |L3.118|
;;;1113   			case 0:{
;;;1114   				calibrationGostraight(LEFT);
;;;1115   				if(SRF_04_Data1.getDistance <26 && SRF_04_Data2.getDistance <26){
;;;1116   					outfireRobotState.moveWays = STOP;
;;;1117   					outfireRobotState.workStep++;
;;;1118   				}break;
;;;1119   			}
;;;1120   			case 1:{
;;;1121   				outfireRobotState.moveWays = REVERSE_RIGHT_TURN_90;
;;;1122   				outfireRobotState.workStep++;
;;;1123   				break;
;;;1124   			}
;;;1125   			case 2:{
;;;1126   				outfireRobotState.moveWays = STOP;
;;;1127   				outfireRobotState.workStep++;
;;;1128   				break;
;;;1129   			}
;;;1130   			case 3:{
;;;1131   				outfireRobotState.moveWays = OTHER;
;;;1132   				calibrationFinish = app_calibration(LEFT);
;;;1133   				if(calibrationFinish == CALIBRATION_FINISHED){
;;;1134   					outfireRobotState.workStep++;
;;;1135   				}break;
;;;1136   			}
;;;1137   			case 4:{
;;;1138   				outfireRobotState.moveWays = STOP;
;;;1139   				outfireRobotState.workStep++;
;;;1140   				break;
;;;1141   			}
;;;1142   			case 5:{
;;;1143   				outfireRobotState.moveWays = FRONT_TURN_RIGHT_90;
;;;1144   				outfireRobotState.workStep++;
;;;1145   				break;
;;;1146   			}
;;;1147   			case 6:{
;;;1148   				outfireRobotState.moveWays = FRONT_TURN_LEFT_90;
;;;1149   				outfireRobotState.workStep++;
;;;1150   				break;
;;;1151   			}
;;;1152   			case 7:{
;;;1153   				outfireRobotState.moveWays = STOP;
;;;1154   				outfireRobotState.workStep++;
;;;1155   				break;
;;;1156   			}
;;;1157   			case 8:{
;;;1158   				calibrationGostraight(RIGHT);
;;;1159   				if(SRF_04_Data1.getDistance <= 11 && SRF_04_Data2.getDistance <= 11){
;;;1160   					outfireRobotState.moveWays = STOP;
;;;1161   					outfireRobotState.workStep = 99;
;;;1162   				}
;;;1163   				break;
;;;1164   			}
;;;1165   			case 99:{
;;;1166   				outfireRobotState.robotTaskstep = FOURTH_FIRE;
;;;1167   				outfireRobotState.moveWays = OTHER;
;;;1168   				outfireRobotState.workStep = 0;
;;;1169   				break;
;;;1170   			}
;;;1171   		}
;;;1172   	}
;;;1173   }
000076  e8bd9ff0          POP      {r4-r12,pc}
                  |L3.122|
00007a  280c              CMP      r0,#0xc               ;1012
00007c  d06d              BEQ      |L3.346|
00007e  280d              CMP      r0,#0xd               ;1012
000080  d06c              BEQ      |L3.348|
000082  2863              CMP      r0,#0x63              ;1012
000084  d1f7              BNE      |L3.118|
000086  7ea0              LDRB     r0,[r4,#0x1a]         ;1100  ; outfireRobotState
000088  2801              CMP      r0,#1                 ;1100
00008a  d068              BEQ      |L3.350|
00008c  71e3              STRB     r3,[r4,#7]            ;1103
                  |L3.142|
00008e  7066              STRB     r6,[r4,#1]            ;1105
000090  f884c003          STRB     r12,[r4,#3]           ;1106
000094  e8bd5ff0          POP      {r4-r12,lr}           ;1107
000098  20c8              MOVS     r0,#0xc8              ;1107
00009a  f7ffbffe          B.W      vTaskDelay
00009e  2001              MOVS     r0,#1                 ;1014
0000a0  f7fffffe          BL       calibrationGostraight
0000a4  68b8              LDR      r0,[r7,#8]            ;1015  ; SRF_04_Data1
0000a6  4550              CMP      r0,r10                ;1015
0000a8  dae5              BGE      |L3.118|
0000aa  f8d80008          LDR      r0,[r8,#8]            ;1015  ; SRF_04_Data2
0000ae  4550              CMP      r0,r10                ;1015
0000b0  dae1              BGE      |L3.118|
0000b2  78e0              LDRB     r0,[r4,#3]            ;1016  ; outfireRobotState
0000b4  1c40              ADDS     r0,r0,#1              ;1016
0000b6  70e0              STRB     r0,[r4,#3]            ;1016
                  |L3.184|
0000b8  e7dd              B        |L3.118|
0000ba  200c              MOVS     r0,#0xc               ;1021
0000bc  7060              STRB     r0,[r4,#1]            ;1021
0000be  70e2              STRB     r2,[r4,#3]            ;1022
0000c0  e7d9              B        |L3.118|
0000c2  f7fffffe          BL       app_findFire
0000c6  f8890000          STRB     r0,[r9,#0]            ;1026
0000ca  7066              STRB     r6,[r4,#1]            ;1027
0000cc  2800              CMP      r0,#0                 ;1028
0000ce  d1d2              BNE      |L3.118|
0000d0  4864              LDR      r0,|L3.612|
0000d2  68b9              LDR      r1,[r7,#8]            ;1028  ; SRF_04_Data1
0000d4  4281              CMP      r1,r0                 ;1028
0000d6  dace              BGE      |L3.118|
0000d8  f8d81008          LDR      r1,[r8,#8]            ;1028  ; SRF_04_Data2
0000dc  4281              CMP      r1,r0                 ;1028
0000de  daca              BGE      |L3.118|
0000e0  7065              STRB     r5,[r4,#1]            ;1029
0000e2  78e0              LDRB     r0,[r4,#3]            ;1030  ; outfireRobotState
0000e4  1c40              ADDS     r0,r0,#1              ;1030
0000e6  70e0              STRB     r0,[r4,#3]            ;1030
                  |L3.232|
0000e8  e7c5              B        |L3.118|
0000ea  f7fffffe          BL       app_fan
0000ee  7066              STRB     r6,[r4,#1]            ;1035
0000f0  f7fffffe          BL       checkFire
0000f4  f8890000          STRB     r0,[r9,#0]            ;1036
0000f8  2800              CMP      r0,#0                 ;1037
0000fa  d1bc              BNE      |L3.118|
0000fc  78e0              LDRB     r0,[r4,#3]            ;1038  ; outfireRobotState
0000fe  1c40              ADDS     r0,r0,#1              ;1038
000100  70e0              STRB     r0,[r4,#3]            ;1038
                  |L3.258|
000102  e7b8              B        |L3.118|
000104  2103              MOVS     r1,#3                 ;1042
000106  f44f7048          MOV      r0,#0x320             ;1042
00010a  f7fffffe          BL       app_goBack
00010e  78e0              LDRB     r0,[r4,#3]            ;1043  ; outfireRobotState
000110  1c40              ADDS     r0,r0,#1              ;1043
000112  70e0              STRB     r0,[r4,#3]            ;1043
000114  e7af              B        |L3.118|
000116  2010              MOVS     r0,#0x10              ;1047
000118  7060              STRB     r0,[r4,#1]            ;1047
00011a  2006              MOVS     r0,#6                 ;1048
00011c  70e0              STRB     r0,[r4,#3]            ;1048
                  |L3.286|
00011e  e7aa              B        |L3.118|
                  |L3.288|
000120  e07d              B        |L3.542|
                  |L3.290|
000122  e049              B        |L3.440|
000124  e007              B        |L3.310|
000126  7065              STRB     r5,[r4,#1]            ;1052
000128  20c8              MOVS     r0,#0xc8              ;1053
00012a  f7fffffe          BL       vTaskDelay
00012e  78e0              LDRB     r0,[r4,#3]            ;1054  ; outfireRobotState
000130  1c40              ADDS     r0,r0,#1              ;1054
000132  70e0              STRB     r0,[r4,#3]            ;1054
000134  e79f              B        |L3.118|
                  |L3.310|
000136  2002              MOVS     r0,#2                 ;1058
000138  f7fffffe          BL       calibrationGostraight
00013c  484a              LDR      r0,|L3.616|
00013e  68b9              LDR      r1,[r7,#8]            ;1059  ; SRF_04_Data1
000140  4281              CMP      r1,r0                 ;1059
000142  da98              BGE      |L3.118|
000144  f8d81008          LDR      r1,[r8,#8]            ;1059  ; SRF_04_Data2
000148  4281              CMP      r1,r0                 ;1059
00014a  da94              BGE      |L3.118|
00014c  78e0              LDRB     r0,[r4,#3]            ;1060  ; outfireRobotState
00014e  1c40              ADDS     r0,r0,#1              ;1060
000150  70e0              STRB     r0,[r4,#3]            ;1060
                  |L3.338|
000152  e790              B        |L3.118|
                  |L3.340|
000154  e00b              B        |L3.366|
000156  e003              B        |L3.352|
000158  e005              B        |L3.358|
                  |L3.346|
00015a  e014              B        |L3.390|
                  |L3.348|
00015c  e025              B        |L3.426|
                  |L3.350|
00015e  e028              B        |L3.434|
                  |L3.352|
000160  7065              STRB     r5,[r4,#1]            ;1065
000162  70e1              STRB     r1,[r4,#3]            ;1066
000164  e787              B        |L3.118|
                  |L3.358|
000166  200e              MOVS     r0,#0xe               ;1070
000168  7060              STRB     r0,[r4,#1]            ;1070
00016a  70e1              STRB     r1,[r4,#3]            ;1071
00016c  e783              B        |L3.118|
                  |L3.366|
00016e  7066              STRB     r6,[r4,#1]            ;1080
000170  2002              MOVS     r0,#2                 ;1081
000172  f7fffffe          BL       app_calibration
000176  f8890000          STRB     r0,[r9,#0]            ;1081
00017a  2800              CMP      r0,#0                 ;1082
00017c  d19c              BNE      |L3.184|
00017e  78e0              LDRB     r0,[r4,#3]            ;1083  ; outfireRobotState
000180  1c40              ADDS     r0,r0,#1              ;1083
000182  70e0              STRB     r0,[r4,#3]            ;1083
000184  e777              B        |L3.118|
                  |L3.390|
000186  2015              MOVS     r0,#0x15              ;1087
000188  7060              STRB     r0,[r4,#1]            ;1087
00018a  2002              MOVS     r0,#2                 ;1088
00018c  f7fffffe          BL       calibrationGostraight
000190  4836              LDR      r0,|L3.620|
000192  68b9              LDR      r1,[r7,#8]            ;1089  ; SRF_04_Data1
000194  4281              CMP      r1,r0                 ;1089
000196  da8f              BGE      |L3.184|
000198  f8d81008          LDR      r1,[r8,#8]            ;1089  ; SRF_04_Data2
00019c  4281              CMP      r1,r0                 ;1089
00019e  da8b              BGE      |L3.184|
0001a0  7065              STRB     r5,[r4,#1]            ;1090
0001a2  78e0              LDRB     r0,[r4,#3]            ;1091  ; outfireRobotState
0001a4  1c40              ADDS     r0,r0,#1              ;1091
0001a6  70e0              STRB     r0,[r4,#3]            ;1091
0001a8  e765              B        |L3.118|
                  |L3.426|
0001aa  7066              STRB     r6,[r4,#1]            ;1095
0001ac  f884b003          STRB     r11,[r4,#3]           ;1096
0001b0  e761              B        |L3.118|
                  |L3.434|
0001b2  2009              MOVS     r0,#9                 ;1101
0001b4  71e0              STRB     r0,[r4,#7]            ;1101
0001b6  e76a              B        |L3.142|
                  |L3.440|
0001b8  2806              CMP      r0,#6                 ;1112
0001ba  d034              BEQ      |L3.550|
0001bc  2807              CMP      r0,#7                 ;1112
0001be  d035              BEQ      |L3.556|
0001c0  2808              CMP      r0,#8                 ;1112
0001c2  d036              BEQ      |L3.562|
0001c4  2863              CMP      r0,#0x63              ;1112
0001c6  d18f              BNE      |L3.232|
0001c8  71e3              STRB     r3,[r4,#7]            ;1166
0001ca  7066              STRB     r6,[r4,#1]            ;1167
0001cc  f884c003          STRB     r12,[r4,#3]           ;1168
0001d0  e751              B        |L3.118|
0001d2  2001              MOVS     r0,#1                 ;1114
0001d4  f7fffffe          BL       calibrationGostraight
0001d8  68b8              LDR      r0,[r7,#8]            ;1115  ; SRF_04_Data1
0001da  4550              CMP      r0,r10                ;1115
0001dc  da84              BGE      |L3.232|
0001de  f8d80008          LDR      r0,[r8,#8]            ;1115  ; SRF_04_Data2
0001e2  4550              CMP      r0,r10                ;1115
0001e4  da8d              BGE      |L3.258|
0001e6  7065              STRB     r5,[r4,#1]            ;1116
0001e8  78e0              LDRB     r0,[r4,#3]            ;1117  ; outfireRobotState
0001ea  1c40              ADDS     r0,r0,#1              ;1117
0001ec  70e0              STRB     r0,[r4,#3]            ;1117
0001ee  e742              B        |L3.118|
0001f0  200f              MOVS     r0,#0xf               ;1121
0001f2  7060              STRB     r0,[r4,#1]            ;1121
0001f4  70e2              STRB     r2,[r4,#3]            ;1122
0001f6  e73e              B        |L3.118|
0001f8  7065              STRB     r5,[r4,#1]            ;1126
0001fa  70e3              STRB     r3,[r4,#3]            ;1127
0001fc  e73b              B        |L3.118|
0001fe  7066              STRB     r6,[r4,#1]            ;1131
000200  2001              MOVS     r0,#1                 ;1132
000202  f7fffffe          BL       app_calibration
000206  f8890000          STRB     r0,[r9,#0]            ;1132
00020a  2800              CMP      r0,#0                 ;1133
00020c  d187              BNE      |L3.286|
00020e  78e0              LDRB     r0,[r4,#3]            ;1134  ; outfireRobotState
000210  1c40              ADDS     r0,r0,#1              ;1134
000212  70e0              STRB     r0,[r4,#3]            ;1134
000214  e72f              B        |L3.118|
000216  7065              STRB     r5,[r4,#1]            ;1138
000218  2005              MOVS     r0,#5                 ;1139
00021a  70e0              STRB     r0,[r4,#3]            ;1139
00021c  e72b              B        |L3.118|
                  |L3.542|
00021e  2004              MOVS     r0,#4                 ;1143
000220  7060              STRB     r0,[r4,#1]            ;1143
000222  70e1              STRB     r1,[r4,#3]            ;1144
000224  e727              B        |L3.118|
                  |L3.550|
000226  7062              STRB     r2,[r4,#1]            ;1148
000228  70e1              STRB     r1,[r4,#3]            ;1149
00022a  e724              B        |L3.118|
                  |L3.556|
00022c  7065              STRB     r5,[r4,#1]            ;1153
00022e  70e1              STRB     r1,[r4,#3]            ;1154
000230  e721              B        |L3.118|
                  |L3.562|
000232  2002              MOVS     r0,#2                 ;1158
000234  f7fffffe          BL       calibrationGostraight
000238  480d              LDR      r0,|L3.624|
00023a  68b9              LDR      r1,[r7,#8]            ;1159  ; SRF_04_Data1
00023c  4281              CMP      r1,r0                 ;1159
00023e  dc88              BGT      |L3.338|
000240  f8d81008          LDR      r1,[r8,#8]            ;1159  ; SRF_04_Data2
000244  4281              CMP      r1,r0                 ;1159
000246  dc84              BGT      |L3.338|
000248  7065              STRB     r5,[r4,#1]            ;1160
00024a  f884b003          STRB     r11,[r4,#3]           ;1161
00024e  e712              B        |L3.118|
;;;1174   		
                          ENDP

                  |L3.592|
                          DCD      outfireRobotState
                  |L3.596|
                          DCD      SRF_04_Data1
                  |L3.600|
                          DCD      SRF_04_Data2
                  |L3.604|
                          DCD      calibrationFinish
                  |L3.608|
                          DCD      0x41d00000
                  |L3.612|
                          DCD      0x41d80000
                  |L3.616|
                          DCD      0x41700000
                  |L3.620|
                          DCD      0x41200000
                  |L3.624|
                          DCD      0x41300000

                          AREA ||i.app_findSixFire||, CODE, READONLY, ALIGN=2

                  app_findSixFire PROC
;;;347    
;;;348    void app_findSixFire(void){
000000  e92d47f0          PUSH     {r4-r10,lr}
;;;349    	if(outfireRobotState.fireArray[SIXTH_FIRE] == 1){
000004  4c39              LDR      r4,|L4.236|
000006  7be0              LDRB     r0,[r4,#0xf]  ; outfireRobotState
000008  2801              CMP      r0,#1
00000a  d11a              BNE      |L4.66|
;;;350    		switch(outfireRobotState.workStep){
00000c  78e0              LDRB     r0,[r4,#3]  ; outfireRobotState
00000e  2601              MOVS     r6,#1                 ;349
;;;351    			case 0:{
;;;352    				outfireRobotState.moveWays = GO_STRAIGHT;
;;;353    				calibrationGostraight(RIGHT);
;;;354    				if(SRF_04_Data1.getDistance <23 && SRF_04_Data2.getDistance <23){
;;;355    					outfireRobotState.moveWays = STOP;
;;;356    					outfireRobotState.workStep++;
000010  1c41              ADDS     r1,r0,#1
;;;357    				}break;
;;;358    			}
;;;359    			case 1:{
;;;360    				calibrationFinish = app_findFire();
000012  4d37              LDR      r5,|L4.240|
;;;361    				outfireRobotState.moveWays = OTHER;
000014  2714              MOVS     r7,#0x14
000016  b2c9              UXTB     r1,r1                 ;356
000018  2804              CMP      r0,#4                 ;350
00001a  d051              BEQ      |L4.192|
00001c  dc13              BGT      |L4.70|
00001e  f8df80d4          LDR      r8,|L4.244|
000022  f8df90d4          LDR      r9,|L4.248|
000026  b1c0              CBZ      r0,|L4.90|
000028  2801              CMP      r0,#1                 ;350
00002a  d029              BEQ      |L4.128|
00002c  2802              CMP      r0,#2                 ;350
00002e  d03b              BEQ      |L4.168|
000030  2803              CMP      r0,#3                 ;350
000032  d106              BNE      |L4.66|
;;;362    				if(calibrationFinish == CALIBRATION_FINISHED && SRF_04_Data1.getDistance <28 && SRF_04_Data2.getDistance <28 ){
;;;363    					outfireRobotState.moveWays = STOP;
;;;364    					outfireRobotState.workStep++;
;;;365    				}break;
;;;366    			}
;;;367    			case 2:{
;;;368    				outfireRobotState.moveWays = OTHER;
;;;369    				app_fan();
;;;370    				calibrationFinish = checkFire();
;;;371    				if(calibrationFinish == CALIBRATION_FINISHED){
;;;372    					outfireRobotState.workStep++;
;;;373    				}break;
;;;374    			}
;;;375    			case 3:{
;;;376    				app_goBack(100,NO_TURN);
000034  2103              MOVS     r1,#3
000036  2064              MOVS     r0,#0x64
000038  f7fffffe          BL       app_goBack
;;;377    				outfireRobotState.workStep++;
00003c  78e0              LDRB     r0,[r4,#3]  ; outfireRobotState
00003e  1c40              ADDS     r0,r0,#1
000040  70e0              STRB     r0,[r4,#3]
                  |L4.66|
;;;378    				break;
;;;379    			}
;;;380    			case 4:{
;;;381    				outfireRobotState.moveWays = REVERSE_LEFT_TURN_135;
;;;382    				outfireRobotState.workStep++;
;;;383    				break;
;;;384    			}
;;;385    			case 5:{
;;;386    				outfireRobotState.moveWays = STOP;
;;;387    				outfireRobotState.workStep++;
;;;388    				break;
;;;389    			}
;;;390    			case 6:{
;;;391    				calibrationFinish = app_calibration(RIGHT);
;;;392    				if(calibrationFinish == CALIBRATION_FINISHED){
;;;393    					outfireRobotState.workStep = 99;
;;;394    				}break;
;;;395    			}
;;;396    			case 99:{
;;;397    				if(outfireRobotState.returnFlag[SIXTH_FIRE] == 1){
;;;398    					outfireRobotState.robotTaskstep = RETURN;
;;;399    				}
;;;400    				outfireRobotState.moveWays = OTHER;
;;;401    				outfireRobotState.workStep = 0;
;;;402    				break;
;;;403    			}
;;;404    		}
;;;405    	}	
;;;406    }
000042  e8bd87f0          POP      {r4-r10,pc}
                  |L4.70|
000046  2805              CMP      r0,#5                 ;350
000048  d03e              BEQ      |L4.200|
00004a  2806              CMP      r0,#6                 ;350
00004c  d03f              BEQ      |L4.206|
00004e  2863              CMP      r0,#0x63              ;350
000050  d1f7              BNE      |L4.66|
000052  7e60              LDRB     r0,[r4,#0x19]         ;397  ; outfireRobotState
000054  2801              CMP      r0,#1                 ;397
000056  d043              BEQ      |L4.224|
000058  e044              B        |L4.228|
                  |L4.90|
00005a  2015              MOVS     r0,#0x15              ;352
00005c  7060              STRB     r0,[r4,#1]            ;352
00005e  2002              MOVS     r0,#2                 ;353
000060  f7fffffe          BL       calibrationGostraight
000064  4825              LDR      r0,|L4.252|
000066  f8d81008          LDR      r1,[r8,#8]            ;354  ; SRF_04_Data1
00006a  4281              CMP      r1,r0                 ;354
00006c  dae9              BGE      |L4.66|
00006e  f8d91008          LDR      r1,[r9,#8]            ;354  ; SRF_04_Data2
000072  4281              CMP      r1,r0                 ;354
000074  dae5              BGE      |L4.66|
000076  7066              STRB     r6,[r4,#1]            ;355
000078  78e0              LDRB     r0,[r4,#3]            ;356  ; outfireRobotState
00007a  1c40              ADDS     r0,r0,#1              ;356
00007c  70e0              STRB     r0,[r4,#3]            ;356
00007e  e7e0              B        |L4.66|
                  |L4.128|
000080  f7fffffe          BL       app_findFire
000084  7028              STRB     r0,[r5,#0]            ;360
000086  7067              STRB     r7,[r4,#1]            ;361
000088  2800              CMP      r0,#0                 ;362
00008a  d1da              BNE      |L4.66|
00008c  481c              LDR      r0,|L4.256|
00008e  f8d81008          LDR      r1,[r8,#8]            ;362  ; SRF_04_Data1
000092  4281              CMP      r1,r0                 ;362
000094  dad5              BGE      |L4.66|
000096  f8d91008          LDR      r1,[r9,#8]            ;362  ; SRF_04_Data2
00009a  4281              CMP      r1,r0                 ;362
00009c  dad1              BGE      |L4.66|
00009e  7066              STRB     r6,[r4,#1]            ;363
0000a0  78e0              LDRB     r0,[r4,#3]            ;364  ; outfireRobotState
0000a2  1c40              ADDS     r0,r0,#1              ;364
0000a4  70e0              STRB     r0,[r4,#3]            ;364
0000a6  e7cc              B        |L4.66|
                  |L4.168|
0000a8  7067              STRB     r7,[r4,#1]            ;368
0000aa  f7fffffe          BL       app_fan
0000ae  f7fffffe          BL       checkFire
0000b2  7028              STRB     r0,[r5,#0]            ;370
0000b4  2800              CMP      r0,#0                 ;371
0000b6  d1c4              BNE      |L4.66|
0000b8  78e0              LDRB     r0,[r4,#3]            ;372  ; outfireRobotState
0000ba  1c40              ADDS     r0,r0,#1              ;372
0000bc  70e0              STRB     r0,[r4,#3]            ;372
0000be  e7c0              B        |L4.66|
                  |L4.192|
0000c0  2010              MOVS     r0,#0x10              ;381
0000c2  7060              STRB     r0,[r4,#1]            ;381
0000c4  70e1              STRB     r1,[r4,#3]            ;382
0000c6  e7bc              B        |L4.66|
                  |L4.200|
0000c8  7066              STRB     r6,[r4,#1]            ;386
0000ca  70e1              STRB     r1,[r4,#3]            ;387
0000cc  e7b9              B        |L4.66|
                  |L4.206|
0000ce  2002              MOVS     r0,#2                 ;391
0000d0  f7fffffe          BL       app_calibration
0000d4  7028              STRB     r0,[r5,#0]            ;391
0000d6  2800              CMP      r0,#0                 ;392
0000d8  d1b3              BNE      |L4.66|
0000da  2063              MOVS     r0,#0x63              ;393
0000dc  70e0              STRB     r0,[r4,#3]            ;393
0000de  e7b0              B        |L4.66|
                  |L4.224|
0000e0  2009              MOVS     r0,#9                 ;398
0000e2  71e0              STRB     r0,[r4,#7]            ;398
                  |L4.228|
0000e4  7067              STRB     r7,[r4,#1]            ;400
0000e6  2000              MOVS     r0,#0                 ;401
0000e8  70e0              STRB     r0,[r4,#3]            ;401
0000ea  e7aa              B        |L4.66|
;;;407    
                          ENDP

                  |L4.236|
                          DCD      outfireRobotState
                  |L4.240|
                          DCD      calibrationFinish
                  |L4.244|
                          DCD      SRF_04_Data1
                  |L4.248|
                          DCD      SRF_04_Data2
                  |L4.252|
                          DCD      0x41b80000
                  |L4.256|
                          DCD      0x41e00000

                          AREA ||i.app_outfireTwoWorkDoing||, CODE, READONLY, ALIGN=2

                  app_outfireTwoWorkDoing PROC
;;;1534   /***寻火任务**/
;;;1535   void app_outfireTwoWorkDoing(void){
000000  480e              LDR      r0,|L5.60|
;;;1536   	if(outfireRobotState.beginFlag == FREE && outfireRobotState.workMode != TEST){
000002  7981              LDRB     r1,[r0,#6]  ; outfireRobotState
000004  2901              CMP      r1,#1
000006  d117              BNE      |L5.56|
000008  7a01              LDRB     r1,[r0,#8]  ; outfireRobotState
00000a  2900              CMP      r1,#0
00000c  d014              BEQ      |L5.56|
;;;1537   		switch(outfireRobotState.robotTaskstep){
00000e  79c0              LDRB     r0,[r0,#7]  ; outfireRobotState
000010  1ec0              SUBS     r0,r0,#3
000012  2807              CMP      r0,#7
000014  d210              BCS      |L5.56|
000016  e8dff000          TBB      [pc,r0]
00001a  060f              DCB      0x06,0x0f
00001c  040a080f          DCB      0x04,0x0a,0x08,0x0f
000020  0c00              DCB      0x0c,0x00
;;;1538   			case SIXTH_FIRE:app_findSixFire(); break;
000022  f7ffbffe          B.W      app_findSixFire
;;;1539   			case FOURTH_FIRE:app_findFourthFire(); break;
000026  f7ffbffe          B.W      app_findFourthFire
;;;1540   			case EIGHTH_FIRE:app_findEighthFire(); break;
00002a  f7ffbffe          B.W      app_findEighthFire
;;;1541   			case SENVENTH_FIRE:app_findSeventhFire();break;
00002e  f7ffbffe          B.W      app_findSeventhFire
;;;1542   			case RETURN:returnHome(&outfireRobotState);break;
000032  4802              LDR      r0,|L5.60|
000034  f7ffbffe          B.W      returnHome
                  |L5.56|
;;;1543   		}
;;;1544   	}
;;;1545   
;;;1546   }
000038  4770              BX       lr
                          ENDP

00003a  0000              DCW      0x0000
                  |L5.60|
                          DCD      outfireRobotState

                          AREA ||i.app_outfireTwoWorkReady||, CODE, READONLY, ALIGN=2

                  app_outfireTwoWorkReady PROC
;;;4      **********************************************************/
;;;5      void app_outfireTwoWorkReady(void)
000000  b510              PUSH     {r4,lr}
;;;6      {
;;;7      	/*待补充*/ //用按键控制小车启动//
;;;8      	//finishFlag = SET_ZERO;
;;;9      	if(outfireRobotState.workMode == OUT_FIRE){
000002  4c0d              LDR      r4,|L6.56|
000004  7a20              LDRB     r0,[r4,#8]  ; outfireRobotState
000006  2801              CMP      r0,#1
000008  d10e              BNE      |L6.40|
;;;10     			app_judgeFunc();	
00000a  f7fffffe          BL       app_judgeFunc
;;;11     		if(outfireRobotState.returnFlag[RETURN] == 0){
00000e  7f60              LDRB     r0,[r4,#0x1d]  ; outfireRobotState
000010  2300              MOVS     r3,#0
000012  2101              MOVS     r1,#1                 ;9
;;;12     			outfireRobotState.robotTaskstep = EIGHTH_FIRE;
;;;13     			outfireRobotState.step = DOING;
000014  2202              MOVS     r2,#2
000016  b140              CBZ      r0,|L6.42|
;;;14     			outfireRobotState.workStep = NULL;
;;;15     			outfireRobotState.moveWays = STOP;
;;;16     			outfireRobotState.beginFlag = FREE;
;;;17     		}else if(outfireRobotState.returnFlag[RETURN] == 1){
000018  2801              CMP      r0,#1
00001a  d105              BNE      |L6.40|
;;;18     			outfireRobotState.robotTaskstep = RETURN;
00001c  2009              MOVS     r0,#9
00001e  71e0              STRB     r0,[r4,#7]
;;;19     			outfireRobotState.step = DOING;
000020  7162              STRB     r2,[r4,#5]
;;;20     			outfireRobotState.workStep = NULL;
000022  70e3              STRB     r3,[r4,#3]
;;;21     			outfireRobotState.moveWays = STOP;
000024  7061              STRB     r1,[r4,#1]
;;;22     				outfireRobotState.beginFlag = FREE;
000026  71a1              STRB     r1,[r4,#6]
                  |L6.40|
;;;23     		}
;;;24     	}
;;;25     }
000028  bd10              POP      {r4,pc}
                  |L6.42|
00002a  2007              MOVS     r0,#7                 ;12
00002c  71e0              STRB     r0,[r4,#7]            ;12
00002e  7162              STRB     r2,[r4,#5]            ;13
000030  70e3              STRB     r3,[r4,#3]            ;14
000032  7061              STRB     r1,[r4,#1]            ;15
000034  71a1              STRB     r1,[r4,#6]            ;16
000036  bd10              POP      {r4,pc}
;;;26     
                          ENDP

                  |L6.56|
                          DCD      outfireRobotState

                          AREA ||i.app_returnFromEighthFire||, CODE, READONLY, ALIGN=2

                  app_returnFromEighthFire PROC
;;;1175   				
;;;1176   void app_returnFromEighthFire(void){
000000  e92d47f0          PUSH     {r4-r10,lr}
;;;1177   	switch(outfireRobotState.workStep){
000004  4c53              LDR      r4,|L7.340|
000006  2303              MOVS     r3,#3
000008  2501              MOVS     r5,#1
00000a  78e0              LDRB     r0,[r4,#3]  ; outfireRobotState
;;;1178   		case 0:{
;;;1179   			calibrationGostraight(LEFT);
;;;1180   			if(SRF_04_Data1.getDistance <26 && SRF_04_Data2.getDistance <26){
00000c  4f52              LDR      r7,|L7.344|
00000e  f8df814c          LDR      r8,|L7.348|
;;;1181   				outfireRobotState.moveWays = STOP;
;;;1182   				outfireRobotState.workStep++;
;;;1183   			}break;
;;;1184   		}
;;;1185   		case 1:{
;;;1186   			outfireRobotState.moveWays = REVERSE_RIGHT_TURN_90;
;;;1187   			outfireRobotState.workStep++;
;;;1188   			break;
;;;1189   		}
;;;1190   		case 2:{
;;;1191   			outfireRobotState.moveWays = STOP;
;;;1192   			outfireRobotState.workStep++;
;;;1193   			break;
;;;1194   		}
;;;1195   		case 3:{
;;;1196   			outfireRobotState.moveWays = OTHER;
000012  2214              MOVS     r2,#0x14
;;;1197   			calibrationFinish = app_calibration(LEFT);
000014  4e52              LDR      r6,|L7.352|
000016  f04f0c05          MOV      r12,#5                ;1177
00001a  2808              CMP      r0,#8                 ;1177
00001c  d065              BEQ      |L7.234|
00001e  dc09              BGT      |L7.52|
000020  f04f0102          MOV      r1,#2                 ;1177
000024  2808              CMP      r0,#8                 ;1177
000026  d220              BCS      |L7.106|
000028  e8dff000          TBB      [pc,r0]               ;1177
00002c  2c3c4043          DCB      0x2c,0x3c,0x40,0x43
000030  4e52575b          DCB      0x4e,0x52,0x57,0x5b
                  |L7.52|
000034  4947              LDR      r1,|L7.340|
000036  78c9              LDRB     r1,[r1,#3]            ;1177
000038  1c49              ADDS     r1,r1,#1              ;1182
00003a  b2c9              UXTB     r1,r1                 ;1182
00003c  280d              CMP      r0,#0xd               ;1177
00003e  d06a              BEQ      |L7.278|
000040  dc15              BGT      |L7.110|
000042  2809              CMP      r0,#9                 ;1177
000044  d05d              BEQ      |L7.258|
000046  280a              CMP      r0,#0xa               ;1177
000048  d05e              BEQ      |L7.264|
00004a  280b              CMP      r0,#0xb               ;1177
00004c  d060              BEQ      |L7.272|
00004e  280c              CMP      r0,#0xc               ;1177
000050  d10b              BNE      |L7.106|
;;;1198   			if(calibrationFinish == CALIBRATION_FINISHED){
;;;1199   				outfireRobotState.workStep++;
;;;1200   			}break;
;;;1201   		}
;;;1202   		case 4:{
;;;1203   			outfireRobotState.moveWays = STOP;
;;;1204   			outfireRobotState.workStep++;
;;;1205   			break;
;;;1206   		}
;;;1207   		case 5:{
;;;1208   			outfireRobotState.moveWays = FRONT_TURN_RIGHT_90;
;;;1209   			outfireRobotState.workStep++;
;;;1210   			break;
;;;1211   		}
;;;1212   		case 6:{
;;;1213   			outfireRobotState.moveWays = FRONT_TURN_LEFT_90;
;;;1214   			outfireRobotState.workStep++;
;;;1215   			break;
;;;1216   		}
;;;1217   		case 7:{
;;;1218   			outfireRobotState.moveWays = STOP;
;;;1219   			outfireRobotState.workStep++;
;;;1220   			break;
;;;1221   		}
;;;1222   		case 8:{
;;;1223   			calibrationGostraight(RIGHT);
;;;1224   			if(SRF_04_Data5.getDistance > 50){
;;;1225   				outfireRobotState.workStep++;
;;;1226   			}break;
;;;1227   		}
;;;1228   		case 9:{
;;;1229   			outfireRobotState.moveWays = STOP;
;;;1230   			outfireRobotState.workStep++;
;;;1231   			break;
;;;1232   		}
;;;1233   		case 10:{
;;;1234   			outfireRobotState.moveWays = FRONT_TURN_RIGHT_180;
;;;1235   			outfireRobotState.workStep++;
;;;1236   			break;
;;;1237   		}
;;;1238   		case 11:{
;;;1239   			outfireRobotState.moveWays = STOP;
;;;1240   			outfireRobotState.workStep++;
;;;1241   			break;
;;;1242   		}
;;;1243   		case 12:{
;;;1244   			outfireRobotState.moveWays = GO_STRAIGHT;
000052  2015              MOVS     r0,#0x15
000054  7060              STRB     r0,[r4,#1]
;;;1245   			calibrationGostraight(RIGHT);
000056  2002              MOVS     r0,#2
000058  f7fffffe          BL       calibrationGostraight
;;;1246   			vTaskDelay(500);
00005c  f44f70fa          MOV      r0,#0x1f4
000060  f7fffffe          BL       vTaskDelay
;;;1247   			outfireRobotState.workStep++;
000064  78e0              LDRB     r0,[r4,#3]  ; outfireRobotState
000066  1c40              ADDS     r0,r0,#1
000068  70e0              STRB     r0,[r4,#3]
                  |L7.106|
;;;1248   			break;
;;;1249   		}
;;;1250   		case 13:{
;;;1251   			outfireRobotState.moveWays = STOP;
;;;1252   			outfireRobotState.workStep++;
;;;1253   			break;
;;;1254   		}
;;;1255   		case 14:{
;;;1256   			outfireRobotState.moveWays = OTHER;
;;;1257   			calibrationFinish = app_calibration(RIGHT);
;;;1258   			if(calibrationFinish == CALIBRATION_FINISHED){
;;;1259   				outfireRobotState.workStep++;
;;;1260   			}break;
;;;1261   		}
;;;1262   		case 15:{
;;;1263   			calibrationGostraight(LEFT);
;;;1264   			if(SRF_04_Data1.getDistance <32 && SRF_04_Data2.getDistance <32){
;;;1265   				outfireRobotState.moveWays = STOP;
;;;1266   				outfireRobotState.workStep = 99;
;;;1267   			}break;
;;;1268   		}
;;;1269   		case 99:{
;;;1270   			outfireRobotState.moveWays = OTHER;
;;;1271   			outfireRobotState.step = FINISH;
;;;1272   			outfireRobotState.workStep = 0;
;;;1273   			break;
;;;1274   		}
;;;1275   	}
;;;1276   			
;;;1277   }
00006a  e8bd87f0          POP      {r4-r10,pc}
                  |L7.110|
00006e  280e              CMP      r0,#0xe               ;1177
000070  d054              BEQ      |L7.284|
000072  280f              CMP      r0,#0xf               ;1177
000074  d05d              BEQ      |L7.306|
000076  2863              CMP      r0,#0x63              ;1177
000078  d1f7              BNE      |L7.106|
00007a  7062              STRB     r2,[r4,#1]            ;1270
00007c  7163              STRB     r3,[r4,#5]            ;1271
00007e  2000              MOVS     r0,#0                 ;1272
000080  70e0              STRB     r0,[r4,#3]            ;1272
000082  e7f2              B        |L7.106|
000084  2001              MOVS     r0,#1                 ;1179
000086  f7fffffe          BL       calibrationGostraight
00008a  4836              LDR      r0,|L7.356|
00008c  68b9              LDR      r1,[r7,#8]            ;1180  ; SRF_04_Data1
00008e  4281              CMP      r1,r0                 ;1180
000090  daeb              BGE      |L7.106|
000092  f8d81008          LDR      r1,[r8,#8]            ;1180  ; SRF_04_Data2
000096  4281              CMP      r1,r0                 ;1180
000098  dae7              BGE      |L7.106|
00009a  7065              STRB     r5,[r4,#1]            ;1181
00009c  78e0              LDRB     r0,[r4,#3]            ;1182  ; outfireRobotState
00009e  1c40              ADDS     r0,r0,#1              ;1182
0000a0  70e0              STRB     r0,[r4,#3]            ;1182
0000a2  e7e2              B        |L7.106|
0000a4  200f              MOVS     r0,#0xf               ;1186
0000a6  7060              STRB     r0,[r4,#1]            ;1186
0000a8  70e1              STRB     r1,[r4,#3]            ;1187
0000aa  e7de              B        |L7.106|
0000ac  7065              STRB     r5,[r4,#1]            ;1191
0000ae  70e3              STRB     r3,[r4,#3]            ;1192
0000b0  e7db              B        |L7.106|
0000b2  7062              STRB     r2,[r4,#1]            ;1196
0000b4  2001              MOVS     r0,#1                 ;1197
0000b6  f7fffffe          BL       app_calibration
0000ba  7030              STRB     r0,[r6,#0]            ;1197
0000bc  2800              CMP      r0,#0                 ;1198
0000be  d1d4              BNE      |L7.106|
0000c0  78e0              LDRB     r0,[r4,#3]            ;1199  ; outfireRobotState
0000c2  1c40              ADDS     r0,r0,#1              ;1199
0000c4  70e0              STRB     r0,[r4,#3]            ;1199
0000c6  e7d0              B        |L7.106|
0000c8  7065              STRB     r5,[r4,#1]            ;1203
0000ca  f884c003          STRB     r12,[r4,#3]           ;1204
0000ce  e7cc              B        |L7.106|
0000d0  2004              MOVS     r0,#4                 ;1208
0000d2  7060              STRB     r0,[r4,#1]            ;1208
0000d4  2006              MOVS     r0,#6                 ;1209
0000d6  70e0              STRB     r0,[r4,#3]            ;1209
0000d8  e7c7              B        |L7.106|
0000da  7061              STRB     r1,[r4,#1]            ;1213
0000dc  2007              MOVS     r0,#7                 ;1214
0000de  70e0              STRB     r0,[r4,#3]            ;1214
0000e0  e7c3              B        |L7.106|
0000e2  7065              STRB     r5,[r4,#1]            ;1218
0000e4  2008              MOVS     r0,#8                 ;1219
0000e6  70e0              STRB     r0,[r4,#3]            ;1219
0000e8  e7bf              B        |L7.106|
                  |L7.234|
0000ea  2002              MOVS     r0,#2                 ;1223
0000ec  f7fffffe          BL       calibrationGostraight
0000f0  481d              LDR      r0,|L7.360|
0000f2  491e              LDR      r1,|L7.364|
0000f4  6880              LDR      r0,[r0,#8]            ;1224  ; SRF_04_Data5
0000f6  4288              CMP      r0,r1                 ;1224
0000f8  ddb7              BLE      |L7.106|
0000fa  78e0              LDRB     r0,[r4,#3]            ;1225  ; outfireRobotState
0000fc  1c40              ADDS     r0,r0,#1              ;1225
0000fe  70e0              STRB     r0,[r4,#3]            ;1225
000100  e7b3              B        |L7.106|
                  |L7.258|
000102  7065              STRB     r5,[r4,#1]            ;1229
000104  70e1              STRB     r1,[r4,#3]            ;1230
000106  e7b0              B        |L7.106|
                  |L7.264|
000108  f884c001          STRB     r12,[r4,#1]           ;1234
00010c  70e1              STRB     r1,[r4,#3]            ;1235
00010e  e7ac              B        |L7.106|
                  |L7.272|
000110  7065              STRB     r5,[r4,#1]            ;1239
000112  70e1              STRB     r1,[r4,#3]            ;1240
000114  e7a9              B        |L7.106|
                  |L7.278|
000116  7065              STRB     r5,[r4,#1]            ;1251
000118  70e1              STRB     r1,[r4,#3]            ;1252
00011a  e7a6              B        |L7.106|
                  |L7.284|
00011c  7062              STRB     r2,[r4,#1]            ;1256
00011e  2002              MOVS     r0,#2                 ;1257
000120  f7fffffe          BL       app_calibration
000124  7030              STRB     r0,[r6,#0]            ;1257
000126  2800              CMP      r0,#0                 ;1258
000128  d19f              BNE      |L7.106|
00012a  78e0              LDRB     r0,[r4,#3]            ;1259  ; outfireRobotState
00012c  1c40              ADDS     r0,r0,#1              ;1259
00012e  70e0              STRB     r0,[r4,#3]            ;1259
000130  e79b              B        |L7.106|
                  |L7.306|
000132  2001              MOVS     r0,#1                 ;1263
000134  f7fffffe          BL       calibrationGostraight
000138  68b8              LDR      r0,[r7,#8]            ;1264  ; SRF_04_Data1
00013a  f04f4184          MOV      r1,#0x42000000        ;1264
00013e  4288              CMP      r0,r1                 ;1264
000140  da93              BGE      |L7.106|
000142  f8d80008          LDR      r0,[r8,#8]            ;1264  ; SRF_04_Data2
000146  4288              CMP      r0,r1                 ;1264
000148  da8f              BGE      |L7.106|
00014a  7065              STRB     r5,[r4,#1]            ;1265
00014c  2063              MOVS     r0,#0x63              ;1266
00014e  70e0              STRB     r0,[r4,#3]            ;1266
000150  e78b              B        |L7.106|
;;;1278   
                          ENDP

000152  0000              DCW      0x0000
                  |L7.340|
                          DCD      outfireRobotState
                  |L7.344|
                          DCD      SRF_04_Data1
                  |L7.348|
                          DCD      SRF_04_Data2
                  |L7.352|
                          DCD      calibrationFinish
                  |L7.356|
                          DCD      0x41d00000
                  |L7.360|
                          DCD      SRF_04_Data5
                  |L7.364|
                          DCD      0x42480000

                          AREA ||i.app_returnFromFourthFire||, CODE, READONLY, ALIGN=2

                  app_returnFromFourthFire PROC
;;;1352   }
;;;1353   void app_returnFromFourthFire(void){
000000  e92d47f0          PUSH     {r4-r10,lr}
;;;1354   	switch(outfireRobotState.workStep){
000004  4c58              LDR      r4,|L8.360|
000006  2501              MOVS     r5,#1
;;;1355   		case 0:{
;;;1356   			outfireRobotState.moveWays = GO_STRAIGHT;
000008  2215              MOVS     r2,#0x15
00000a  78e0              LDRB     r0,[r4,#3]            ;1354  ; outfireRobotState
;;;1357   			calibrationGostraight(RIGHT);
;;;1358   			if(SRF_04_Data1.getDistance <18 && SRF_04_Data2.getDistance <18){
00000c  f8df815c          LDR      r8,|L8.364|
;;;1359   				outfireRobotState.moveWays = STOP;
;;;1360   				outfireRobotState.workStep++;
000010  1c41              ADDS     r1,r0,#1
000012  f8df915c          LDR      r9,|L8.368|
;;;1361   			}break;
;;;1362   		}
;;;1363   		case 1:{
;;;1364   			outfireRobotState.moveWays = REVERSE_LEFT_TURN_90;
;;;1365   			outfireRobotState.workStep++;
;;;1366   			break;
;;;1367   		}
;;;1368   		case 2:{
;;;1369   			outfireRobotState.moveWays = STOP;
;;;1370   			outfireRobotState.workStep++;
;;;1371   			break;
;;;1372   		}
;;;1373   		case 3:{
;;;1374   			outfireRobotState.moveWays = OTHER;
000016  2314              MOVS     r3,#0x14
;;;1375   			calibrationFinish = app_calibration(RIGHT);
000018  4e56              LDR      r6,|L8.372|
;;;1376   			if(calibrationFinish == CALIBRATION_FINISHED){
;;;1377   				outfireRobotState.workStep++;
;;;1378   			}break;
;;;1379   		}
;;;1380   		case 4:{
;;;1381   			outfireRobotState.moveWays = GO_STRAIGHT;
;;;1382   			calibrationGostraight(RIGHT);
;;;1383   			if(SRF_04_Data6.getDistance> 40){
00001a  4f57              LDR      r7,|L8.376|
00001c  f04f0c03          MOV      r12,#3                ;1354
000020  b2c9              UXTB     r1,r1                 ;1360
000022  2807              CMP      r0,#7                 ;1354
000024  d078              BEQ      |L8.280|
000026  dc07              BGT      |L8.56|
000028  2807              CMP      r0,#7                 ;1354
00002a  d219              BCS      |L8.96|
00002c  e8dff000          TBB      [pc,r0]               ;1354
000030  26383d41          DCB      0x26,0x38,0x3d,0x41
000034  4c596400          DCB      0x4c,0x59,0x64,0x00
                  |L8.56|
000038  280b              CMP      r0,#0xb               ;1354
00003a  d077              BEQ      |L8.300|
00003c  dc12              BGT      |L8.100|
00003e  2808              CMP      r0,#8                 ;1354
000040  d06d              BEQ      |L8.286|
000042  2809              CMP      r0,#9                 ;1354
000044  d06f              BEQ      |L8.294|
000046  280a              CMP      r0,#0xa               ;1354
000048  d10a              BNE      |L8.96|
;;;1384   				outfireRobotState.moveWays = STOP;
;;;1385   				outfireRobotState.workStep++;
;;;1386   			}break;
;;;1387   		}
;;;1388   		case 5:{
;;;1389   			outfireRobotState.moveWays = OTHER;
;;;1390   			calibrationFinish = app_calibration(LEFT);
;;;1391   			if(calibrationFinish == CALIBRATION_FINISHED){
;;;1392   				outfireRobotState.workStep++;
;;;1393   			}break;
;;;1394   		}
;;;1395   		case 6:{
;;;1396   			outfireRobotState.moveWays = GO_STRAIGHT;
;;;1397   			calibrationGostraight(LEFT);
;;;1398   			vTaskDelay(1200);
;;;1399   			outfireRobotState.workStep++;
;;;1400   			break;
;;;1401   		}
;;;1402   		case 7:{
;;;1403   			outfireRobotState.moveWays = STOP;
;;;1404   			outfireRobotState.workStep++;
;;;1405   			break;
;;;1406   		}
;;;1407   		case 8:{
;;;1408   			outfireRobotState.moveWays = FRONT_TURN_RIGHT_90;
;;;1409   			outfireRobotState.workStep++;
;;;1410   			break;
;;;1411   		}
;;;1412   		case 9:{
;;;1413   			outfireRobotState.moveWays = STOP;
;;;1414   			outfireRobotState.workStep++;
;;;1415   			break;
;;;1416   		}
;;;1417   		case 10:{
;;;1418   			outfireRobotState.moveWays = GO_STRAIGHT;
00004a  7062              STRB     r2,[r4,#1]
;;;1419   			calibrationGostraight(RIGHT);
00004c  2002              MOVS     r0,#2
00004e  f7fffffe          BL       calibrationGostraight
;;;1420   			vTaskDelay(800);
000052  f44f7048          MOV      r0,#0x320
000056  f7fffffe          BL       vTaskDelay
;;;1421   			outfireRobotState.workStep++;
00005a  78e0              LDRB     r0,[r4,#3]  ; outfireRobotState
00005c  1c40              ADDS     r0,r0,#1
00005e  70e0              STRB     r0,[r4,#3]
                  |L8.96|
;;;1422   			break;
;;;1423   		}
;;;1424   		case 11:{
;;;1425   			outfireRobotState.moveWays = STOP;
;;;1426   			outfireRobotState.workStep++;
;;;1427   			break;
;;;1428   		}
;;;1429   		case 12:{
;;;1430   			calibrationFinish = app_calibration(RIGHT);
;;;1431   			if(calibrationFinish == CALIBRATION_FINISHED){
;;;1432   				outfireRobotState.workStep++;
;;;1433   			}break;
;;;1434   		}
;;;1435   		case 13:{
;;;1436   			outfireRobotState.moveWays = GO_STRAIGHT;
;;;1437   			calibrationGostraight(RIGHT);
;;;1438   			if(SRF_04_Data1.getDistance <40 && SRF_04_Data2.getDistance <40){
;;;1439   				outfireRobotState.moveWays = STOP;
;;;1440   				outfireRobotState.workStep = 99;
;;;1441   			}
;;;1442   			break;
;;;1443   		}
;;;1444   		case 99:{
;;;1445   			outfireRobotState.moveWays = OTHER;
;;;1446   			outfireRobotState.step = FINISH;
;;;1447   			outfireRobotState.workStep = 0;
;;;1448   			break;
;;;1449   		}
;;;1450   	}
;;;1451   			
;;;1452   }
000060  e8bd87f0          POP      {r4-r10,pc}
                  |L8.100|
000064  280c              CMP      r0,#0xc               ;1354
000066  d064              BEQ      |L8.306|
000068  280d              CMP      r0,#0xd               ;1354
00006a  d06c              BEQ      |L8.326|
00006c  2863              CMP      r0,#0x63              ;1354
00006e  d1f7              BNE      |L8.96|
000070  7063              STRB     r3,[r4,#1]            ;1445
000072  f884c005          STRB     r12,[r4,#5]           ;1446
000076  2000              MOVS     r0,#0                 ;1447
000078  70e0              STRB     r0,[r4,#3]            ;1447
00007a  e7f1              B        |L8.96|
00007c  7062              STRB     r2,[r4,#1]            ;1356
00007e  2002              MOVS     r0,#2                 ;1357
000080  f7fffffe          BL       calibrationGostraight
000084  483d              LDR      r0,|L8.380|
000086  f8d81008          LDR      r1,[r8,#8]            ;1358  ; SRF_04_Data1
00008a  4281              CMP      r1,r0                 ;1358
00008c  dae8              BGE      |L8.96|
00008e  f8d91008          LDR      r1,[r9,#8]            ;1358  ; SRF_04_Data2
000092  4281              CMP      r1,r0                 ;1358
000094  dae4              BGE      |L8.96|
000096  7065              STRB     r5,[r4,#1]            ;1359
000098  78e0              LDRB     r0,[r4,#3]            ;1360  ; outfireRobotState
00009a  1c40              ADDS     r0,r0,#1              ;1360
00009c  70e0              STRB     r0,[r4,#3]            ;1360
00009e  e7df              B        |L8.96|
0000a0  200e              MOVS     r0,#0xe               ;1364
0000a2  7060              STRB     r0,[r4,#1]            ;1364
0000a4  2002              MOVS     r0,#2                 ;1365
0000a6  70e0              STRB     r0,[r4,#3]            ;1365
0000a8  e7da              B        |L8.96|
0000aa  7065              STRB     r5,[r4,#1]            ;1369
0000ac  f884c003          STRB     r12,[r4,#3]           ;1370
0000b0  e7d6              B        |L8.96|
0000b2  7063              STRB     r3,[r4,#1]            ;1374
0000b4  2002              MOVS     r0,#2                 ;1375
0000b6  f7fffffe          BL       app_calibration
0000ba  7030              STRB     r0,[r6,#0]            ;1375
0000bc  2800              CMP      r0,#0                 ;1376
0000be  d1cf              BNE      |L8.96|
0000c0  78e0              LDRB     r0,[r4,#3]            ;1377  ; outfireRobotState
0000c2  1c40              ADDS     r0,r0,#1              ;1377
0000c4  70e0              STRB     r0,[r4,#3]            ;1377
0000c6  e7cb              B        |L8.96|
0000c8  7062              STRB     r2,[r4,#1]            ;1381
0000ca  2002              MOVS     r0,#2                 ;1382
0000cc  f7fffffe          BL       calibrationGostraight
0000d0  482b              LDR      r0,|L8.384|
0000d2  6880              LDR      r0,[r0,#8]            ;1383  ; SRF_04_Data6
0000d4  42b8              CMP      r0,r7                 ;1383
0000d6  ddc3              BLE      |L8.96|
0000d8  7065              STRB     r5,[r4,#1]            ;1384
0000da  78e0              LDRB     r0,[r4,#3]            ;1385  ; outfireRobotState
0000dc  1c40              ADDS     r0,r0,#1              ;1385
0000de  70e0              STRB     r0,[r4,#3]            ;1385
0000e0  e7be              B        |L8.96|
0000e2  7063              STRB     r3,[r4,#1]            ;1389
0000e4  2001              MOVS     r0,#1                 ;1390
0000e6  f7fffffe          BL       app_calibration
0000ea  7030              STRB     r0,[r6,#0]            ;1390
0000ec  2800              CMP      r0,#0                 ;1391
0000ee  d1b7              BNE      |L8.96|
0000f0  78e0              LDRB     r0,[r4,#3]            ;1392  ; outfireRobotState
0000f2  1c40              ADDS     r0,r0,#1              ;1392
0000f4  70e0              STRB     r0,[r4,#3]            ;1392
0000f6  e7b3              B        |L8.96|
0000f8  7062              STRB     r2,[r4,#1]            ;1396
0000fa  2001              MOVS     r0,#1                 ;1397
0000fc  f7fffffe          BL       calibrationGostraight
000100  f44f6096          MOV      r0,#0x4b0             ;1398
000104  f7fffffe          BL       vTaskDelay
000108  78e0              LDRB     r0,[r4,#3]            ;1399  ; outfireRobotState
00010a  1c40              ADDS     r0,r0,#1              ;1399
00010c  70e0              STRB     r0,[r4,#3]            ;1399
00010e  e7a7              B        |L8.96|
000110  e002              B        |L8.280|
000112  e00b              B        |L8.300|
000114  e003              B        |L8.286|
000116  e006              B        |L8.294|
                  |L8.280|
000118  7065              STRB     r5,[r4,#1]            ;1403
00011a  70e1              STRB     r1,[r4,#3]            ;1404
00011c  e7a0              B        |L8.96|
                  |L8.286|
00011e  2004              MOVS     r0,#4                 ;1408
000120  7060              STRB     r0,[r4,#1]            ;1408
000122  70e1              STRB     r1,[r4,#3]            ;1409
000124  e79c              B        |L8.96|
                  |L8.294|
000126  7065              STRB     r5,[r4,#1]            ;1413
000128  70e1              STRB     r1,[r4,#3]            ;1414
00012a  e799              B        |L8.96|
                  |L8.300|
00012c  7065              STRB     r5,[r4,#1]            ;1425
00012e  70e1              STRB     r1,[r4,#3]            ;1426
000130  e796              B        |L8.96|
                  |L8.306|
000132  2002              MOVS     r0,#2                 ;1430
000134  f7fffffe          BL       app_calibration
000138  7030              STRB     r0,[r6,#0]            ;1430
00013a  2800              CMP      r0,#0                 ;1431
00013c  d190              BNE      |L8.96|
00013e  78e0              LDRB     r0,[r4,#3]            ;1432  ; outfireRobotState
000140  1c40              ADDS     r0,r0,#1              ;1432
000142  70e0              STRB     r0,[r4,#3]            ;1432
000144  e78c              B        |L8.96|
                  |L8.326|
000146  7062              STRB     r2,[r4,#1]            ;1436
000148  2002              MOVS     r0,#2                 ;1437
00014a  f7fffffe          BL       calibrationGostraight
00014e  f8d80008          LDR      r0,[r8,#8]            ;1438  ; SRF_04_Data1
000152  42b8              CMP      r0,r7                 ;1438
000154  da84              BGE      |L8.96|
000156  f8d90008          LDR      r0,[r9,#8]            ;1438  ; SRF_04_Data2
00015a  42b8              CMP      r0,r7                 ;1438
00015c  da80              BGE      |L8.96|
00015e  7065              STRB     r5,[r4,#1]            ;1439
000160  2063              MOVS     r0,#0x63              ;1440
000162  70e0              STRB     r0,[r4,#3]            ;1440
000164  e77c              B        |L8.96|
;;;1453   
                          ENDP

000166  0000              DCW      0x0000
                  |L8.360|
                          DCD      outfireRobotState
                  |L8.364|
                          DCD      SRF_04_Data1
                  |L8.368|
                          DCD      SRF_04_Data2
                  |L8.372|
                          DCD      calibrationFinish
                  |L8.376|
                          DCD      0x42200000
                  |L8.380|
                          DCD      0x41900000
                  |L8.384|
                          DCD      SRF_04_Data6

                          AREA ||i.app_returnFromSenventhFire||, CODE, READONLY, ALIGN=2

                  app_returnFromSenventhFire PROC
;;;1453   
;;;1454   void app_returnFromSenventhFire(void){//测试完成
000000  b570              PUSH     {r4-r6,lr}
;;;1455   	switch(outfireRobotState.workStep){
000002  4c36              LDR      r4,|L9.220|
000004  2501              MOVS     r5,#1
;;;1456   		case 0:{
;;;1457   			outfireRobotState.moveWays = REVERSE_RIGHT_TURN_90;
;;;1458   			outfireRobotState.workStep++;
;;;1459   			break;
;;;1460   		}
;;;1461   		case 1:{
;;;1462   			outfireRobotState.moveWays = STOP;
;;;1463   			vTaskDelay(200);
;;;1464   			outfireRobotState.workStep++;
;;;1465   			break;
;;;1466   		}
;;;1467   		case 2:{
;;;1468   			calibrationFinish = app_calibration(LEFT);
000006  4e36              LDR      r6,|L9.224|
000008  78e0              LDRB     r0,[r4,#3]            ;1455  ; outfireRobotState
;;;1469   			if(calibrationFinish == CALIBRATION_FINISHED){
;;;1470   				outfireRobotState.workStep++;
;;;1471   			}break;
;;;1472   		}
;;;1473   		case 3:{
;;;1474   			outfireRobotState.moveWays = GO_STRAIGHT;
00000a  2115              MOVS     r1,#0x15
00000c  2805              CMP      r0,#5                 ;1455
00000e  d03a              BEQ      |L9.134|
000010  dc06              BGT      |L9.32|
000012  2805              CMP      r0,#5                 ;1455
000014  d212              BCS      |L9.60|
000016  e8dff000          TBB      [pc,r0]               ;1455
00001a  1216              DCB      0x12,0x16
00001c  1e283100          DCB      0x1e,0x28,0x31,0x00
                  |L9.32|
000020  2806              CMP      r0,#6                 ;1455
000022  d034              BEQ      |L9.142|
000024  2807              CMP      r0,#7                 ;1455
000026  d03e              BEQ      |L9.166|
;;;1475   			vTaskDelay(800);
;;;1476   			outfireRobotState.workStep++;
;;;1477   			break;
;;;1478   		}
;;;1479   		case 4:{
;;;1480   			outfireRobotState.moveWays = FRONT_TURN_RIGHT_90;
;;;1481   			outfireRobotState.workStep++;
;;;1482   			break;
;;;1483   		}
;;;1484   		case 5:{
;;;1485   			outfireRobotState.moveWays = STOP;
;;;1486   			outfireRobotState.workStep++;
;;;1487   			break;
;;;1488   		}
;;;1489   		case 6:{
;;;1490   			outfireRobotState.moveWays = GO_STRAIGHT;
;;;1491   			calibrationGostraight(LEFT);
;;;1492   			vTaskDelay(600);
;;;1493   			outfireRobotState.workStep++;
;;;1494   			break;
;;;1495   		}
;;;1496   		case 7:{
;;;1497   			calibrationFinish = app_calibration(RIGHT);
;;;1498   			if(calibrationFinish == CALIBRATION_FINISHED){
;;;1499   				outfireRobotState.workStep++;
;;;1500   			}break;
;;;1501   		}
;;;1502   		case 8:{
;;;1503   			outfireRobotState.moveWays = OTHER;
000028  2114              MOVS     r1,#0x14
00002a  2808              CMP      r0,#8                 ;1455
00002c  d045              BEQ      |L9.186|
00002e  2863              CMP      r0,#0x63              ;1455
000030  d104              BNE      |L9.60|
;;;1504   			calibrationGostraight(LEFT);
;;;1505   			if(SRF_04_Data1.getDistance <35 && SRF_04_Data2.getDistance <35){
;;;1506   				outfireRobotState.moveWays = STOP;
;;;1507   				outfireRobotState.workStep = 99;
;;;1508   			}break;
;;;1509   		}
;;;1510   		case 99:{
;;;1511   			outfireRobotState.moveWays = OTHER;
000032  7061              STRB     r1,[r4,#1]
;;;1512   			outfireRobotState.step = FINISH;
000034  2003              MOVS     r0,#3
000036  7160              STRB     r0,[r4,#5]
;;;1513   			outfireRobotState.workStep = 0;
000038  2000              MOVS     r0,#0
00003a  70e0              STRB     r0,[r4,#3]
                  |L9.60|
;;;1514   			break;
;;;1515   		}
;;;1516   	}		
;;;1517   }
00003c  bd70              POP      {r4-r6,pc}
00003e  200f              MOVS     r0,#0xf               ;1457
000040  7060              STRB     r0,[r4,#1]            ;1457
000042  70e5              STRB     r5,[r4,#3]            ;1458
000044  bd70              POP      {r4-r6,pc}
000046  7065              STRB     r5,[r4,#1]            ;1462
000048  20c8              MOVS     r0,#0xc8              ;1463
00004a  f7fffffe          BL       vTaskDelay
00004e  78e0              LDRB     r0,[r4,#3]            ;1464  ; outfireRobotState
000050  1c40              ADDS     r0,r0,#1              ;1464
000052  70e0              STRB     r0,[r4,#3]            ;1464
                  |L9.84|
000054  bd70              POP      {r4-r6,pc}
000056  2001              MOVS     r0,#1                 ;1468
000058  f7fffffe          BL       app_calibration
00005c  7030              STRB     r0,[r6,#0]            ;1468
00005e  2800              CMP      r0,#0                 ;1469
000060  d1f8              BNE      |L9.84|
000062  78e0              LDRB     r0,[r4,#3]            ;1470  ; outfireRobotState
000064  1c40              ADDS     r0,r0,#1              ;1470
000066  70e0              STRB     r0,[r4,#3]            ;1470
000068  bd70              POP      {r4-r6,pc}
00006a  7061              STRB     r1,[r4,#1]            ;1474
00006c  f44f7048          MOV      r0,#0x320             ;1475
000070  f7fffffe          BL       vTaskDelay
000074  78e0              LDRB     r0,[r4,#3]            ;1476  ; outfireRobotState
000076  1c40              ADDS     r0,r0,#1              ;1476
000078  70e0              STRB     r0,[r4,#3]            ;1476
00007a  bd70              POP      {r4-r6,pc}
00007c  2004              MOVS     r0,#4                 ;1480
00007e  7060              STRB     r0,[r4,#1]            ;1480
000080  2005              MOVS     r0,#5                 ;1481
000082  70e0              STRB     r0,[r4,#3]            ;1481
000084  bd70              POP      {r4-r6,pc}
                  |L9.134|
000086  7065              STRB     r5,[r4,#1]            ;1485
000088  1c40              ADDS     r0,r0,#1              ;1486
00008a  70e0              STRB     r0,[r4,#3]            ;1486
00008c  bd70              POP      {r4-r6,pc}
                  |L9.142|
00008e  7061              STRB     r1,[r4,#1]            ;1490
000090  2001              MOVS     r0,#1                 ;1491
000092  f7fffffe          BL       calibrationGostraight
000096  f44f7016          MOV      r0,#0x258             ;1492
00009a  f7fffffe          BL       vTaskDelay
00009e  78e0              LDRB     r0,[r4,#3]            ;1493  ; outfireRobotState
0000a0  1c40              ADDS     r0,r0,#1              ;1493
0000a2  70e0              STRB     r0,[r4,#3]            ;1493
                  |L9.164|
0000a4  bd70              POP      {r4-r6,pc}
                  |L9.166|
0000a6  2002              MOVS     r0,#2                 ;1497
0000a8  f7fffffe          BL       app_calibration
0000ac  7030              STRB     r0,[r6,#0]            ;1497
0000ae  2800              CMP      r0,#0                 ;1498
0000b0  d1f8              BNE      |L9.164|
0000b2  78e0              LDRB     r0,[r4,#3]            ;1499  ; outfireRobotState
0000b4  1c40              ADDS     r0,r0,#1              ;1499
0000b6  70e0              STRB     r0,[r4,#3]            ;1499
                  |L9.184|
0000b8  bd70              POP      {r4-r6,pc}
                  |L9.186|
0000ba  7061              STRB     r1,[r4,#1]            ;1503
0000bc  2001              MOVS     r0,#1                 ;1504
0000be  f7fffffe          BL       calibrationGostraight
0000c2  4808              LDR      r0,|L9.228|
0000c4  6881              LDR      r1,[r0,#8]            ;1505  ; SRF_04_Data1
0000c6  4808              LDR      r0,|L9.232|
0000c8  4281              CMP      r1,r0                 ;1505
0000ca  daf5              BGE      |L9.184|
0000cc  4907              LDR      r1,|L9.236|
0000ce  6889              LDR      r1,[r1,#8]            ;1505  ; SRF_04_Data2
0000d0  4281              CMP      r1,r0                 ;1505
0000d2  daf1              BGE      |L9.184|
0000d4  7065              STRB     r5,[r4,#1]            ;1506
0000d6  2063              MOVS     r0,#0x63              ;1507
0000d8  70e0              STRB     r0,[r4,#3]            ;1507
0000da  bd70              POP      {r4-r6,pc}
;;;1518   
                          ENDP

                  |L9.220|
                          DCD      outfireRobotState
                  |L9.224|
                          DCD      calibrationFinish
                  |L9.228|
                          DCD      SRF_04_Data1
                  |L9.232|
                          DCD      0x420c0000
                  |L9.236|
                          DCD      SRF_04_Data2

                          AREA ||i.app_returnFromSixthFire||, CODE, READONLY, ALIGN=2

                  app_returnFromSixthFire PROC
;;;1278   
;;;1279   void app_returnFromSixthFire(void){
000000  e92d41f0          PUSH     {r4-r8,lr}
;;;1280   	switch(outfireRobotState.workStep){
000004  4c3e              LDR      r4,|L10.256|
000006  2501              MOVS     r5,#1
;;;1281   		case 0:{
;;;1282   			outfireRobotState.moveWays = GO_STRAIGHT;
000008  2215              MOVS     r2,#0x15
00000a  78e0              LDRB     r0,[r4,#3]            ;1280  ; outfireRobotState
;;;1283   			calibrationGostraight(RIGHT);
;;;1284   			if(SRF_04_Data6.getDistance> 40){
;;;1285   				outfireRobotState.moveWays = STOP;
;;;1286   				outfireRobotState.workStep++;
;;;1287   			}break;
;;;1288   		}
;;;1289   		case 1:{
;;;1290   			outfireRobotState.moveWays = OTHER;
00000c  2314              MOVS     r3,#0x14
00000e  1c41              ADDS     r1,r0,#1              ;1286
;;;1291   			calibrationFinish = app_calibration(LEFT);
000010  4e3c              LDR      r6,|L10.260|
000012  4f3d              LDR      r7,|L10.264|
000014  b2c9              UXTB     r1,r1                 ;1286
000016  2805              CMP      r0,#5                 ;1280
000018  d049              BEQ      |L10.174|
00001a  dc08              BGT      |L10.46|
00001c  f04f0104          MOV      r1,#4                 ;1280
000020  2805              CMP      r0,#5                 ;1280
000022  d20d              BCS      |L10.64|
000024  e8dff000          TBB      [pc,r0]               ;1280
000028  1825303c          DCB      0x18,0x25,0x30,0x3c
00002c  3f00              DCB      0x3f,0x00
                  |L10.46|
00002e  2808              CMP      r0,#8                 ;1280
000030  d04c              BEQ      |L10.204|
000032  dc07              BGT      |L10.68|
000034  2806              CMP      r0,#6                 ;1280
000036  d03d              BEQ      |L10.180|
000038  2807              CMP      r0,#7                 ;1280
00003a  d101              BNE      |L10.64|
;;;1292   			if(calibrationFinish == CALIBRATION_FINISHED){
;;;1293   				outfireRobotState.workStep++;
;;;1294   			}break;
;;;1295   		}
;;;1296   		case 2:{
;;;1297   			outfireRobotState.moveWays = GO_STRAIGHT;
;;;1298   			calibrationGostraight(LEFT);
;;;1299   			vTaskDelay(1500);
;;;1300   			outfireRobotState.workStep++;
;;;1301   			break;
;;;1302   		}
;;;1303   		case 3:{
;;;1304   			outfireRobotState.moveWays = STOP;
;;;1305   			outfireRobotState.workStep++;
;;;1306   			break;
;;;1307   		}
;;;1308   		case 4:{
;;;1309   			outfireRobotState.moveWays = FRONT_TURN_RIGHT_90;
;;;1310   			outfireRobotState.workStep++;
;;;1311   			break;
;;;1312   		}
;;;1313   		case 5:{
;;;1314   			outfireRobotState.moveWays = STOP;
;;;1315   			outfireRobotState.workStep++;
;;;1316   			break;
;;;1317   		}
;;;1318   		case 6:{
;;;1319   			outfireRobotState.moveWays = GO_STRAIGHT;
;;;1320   			calibrationGostraight(RIGHT);
;;;1321   			vTaskDelay(450);
;;;1322   			outfireRobotState.workStep++;
;;;1323   			break;
;;;1324   		}
;;;1325   		case 7:{
;;;1326   			outfireRobotState.moveWays = STOP;
00003c  7065              STRB     r5,[r4,#1]
;;;1327   			outfireRobotState.workStep++;
00003e  70e1              STRB     r1,[r4,#3]
                  |L10.64|
;;;1328   			break;
;;;1329   		}
;;;1330   		case 8:{
;;;1331   			calibrationFinish = app_calibration(LEFT);
;;;1332   			if(calibrationFinish == CALIBRATION_FINISHED){
;;;1333   				outfireRobotState.workStep++;
;;;1334   			}break;
;;;1335   		}
;;;1336   		case 9:{
;;;1337   			outfireRobotState.moveWays = GO_STRAIGHT;
;;;1338   			calibrationGostraight(RIGHT);
;;;1339   			if(SRF_04_Data1.getDistance <40 && SRF_04_Data2.getDistance <40){
;;;1340   				outfireRobotState.moveWays = STOP;
;;;1341   				outfireRobotState.workStep = 99;
;;;1342   			}
;;;1343   			break;
;;;1344   		}
;;;1345   		case 99:{
;;;1346   			outfireRobotState.moveWays = OTHER;
;;;1347   			outfireRobotState.step = FINISH;
;;;1348   			outfireRobotState.workStep = 0;
;;;1349   			break;
;;;1350   		}
;;;1351   	}
;;;1352   }
000040  e8bd81f0          POP      {r4-r8,pc}
                  |L10.68|
000044  2809              CMP      r0,#9                 ;1280
000046  d04b              BEQ      |L10.224|
000048  2863              CMP      r0,#0x63              ;1280
00004a  d1f9              BNE      |L10.64|
00004c  7063              STRB     r3,[r4,#1]            ;1346
00004e  2003              MOVS     r0,#3                 ;1347
000050  7160              STRB     r0,[r4,#5]            ;1347
000052  2000              MOVS     r0,#0                 ;1348
000054  70e0              STRB     r0,[r4,#3]            ;1348
000056  e7f3              B        |L10.64|
000058  7062              STRB     r2,[r4,#1]            ;1282
00005a  2002              MOVS     r0,#2                 ;1283
00005c  f7fffffe          BL       calibrationGostraight
000060  482a              LDR      r0,|L10.268|
000062  6880              LDR      r0,[r0,#8]            ;1284  ; SRF_04_Data6
000064  42b8              CMP      r0,r7                 ;1284
000066  ddeb              BLE      |L10.64|
000068  7065              STRB     r5,[r4,#1]            ;1285
00006a  78e0              LDRB     r0,[r4,#3]            ;1286  ; outfireRobotState
00006c  1c40              ADDS     r0,r0,#1              ;1286
00006e  70e0              STRB     r0,[r4,#3]            ;1286
000070  e7e6              B        |L10.64|
000072  7063              STRB     r3,[r4,#1]            ;1290
000074  2001              MOVS     r0,#1                 ;1291
000076  f7fffffe          BL       app_calibration
00007a  7030              STRB     r0,[r6,#0]            ;1291
00007c  2800              CMP      r0,#0                 ;1292
00007e  d1df              BNE      |L10.64|
000080  78e0              LDRB     r0,[r4,#3]            ;1293  ; outfireRobotState
000082  1c40              ADDS     r0,r0,#1              ;1293
000084  70e0              STRB     r0,[r4,#3]            ;1293
000086  e7db              B        |L10.64|
000088  7062              STRB     r2,[r4,#1]            ;1297
00008a  2001              MOVS     r0,#1                 ;1298
00008c  f7fffffe          BL       calibrationGostraight
000090  f24050dc          MOV      r0,#0x5dc             ;1299
000094  f7fffffe          BL       vTaskDelay
000098  78e0              LDRB     r0,[r4,#3]            ;1300  ; outfireRobotState
00009a  1c40              ADDS     r0,r0,#1              ;1300
00009c  70e0              STRB     r0,[r4,#3]            ;1300
00009e  e7cf              B        |L10.64|
0000a0  7065              STRB     r5,[r4,#1]            ;1304
0000a2  70e1              STRB     r1,[r4,#3]            ;1305
0000a4  e7cc              B        |L10.64|
0000a6  7061              STRB     r1,[r4,#1]            ;1309
0000a8  2005              MOVS     r0,#5                 ;1310
0000aa  70e0              STRB     r0,[r4,#3]            ;1310
0000ac  e7c8              B        |L10.64|
                  |L10.174|
0000ae  7065              STRB     r5,[r4,#1]            ;1314
0000b0  70e1              STRB     r1,[r4,#3]            ;1315
0000b2  e7c5              B        |L10.64|
                  |L10.180|
0000b4  7062              STRB     r2,[r4,#1]            ;1319
0000b6  2002              MOVS     r0,#2                 ;1320
0000b8  f7fffffe          BL       calibrationGostraight
0000bc  f44f70e1          MOV      r0,#0x1c2             ;1321
0000c0  f7fffffe          BL       vTaskDelay
0000c4  78e0              LDRB     r0,[r4,#3]            ;1322  ; outfireRobotState
0000c6  1c40              ADDS     r0,r0,#1              ;1322
0000c8  70e0              STRB     r0,[r4,#3]            ;1322
0000ca  e7b9              B        |L10.64|
                  |L10.204|
0000cc  2001              MOVS     r0,#1                 ;1331
0000ce  f7fffffe          BL       app_calibration
0000d2  7030              STRB     r0,[r6,#0]            ;1331
0000d4  2800              CMP      r0,#0                 ;1332
0000d6  d1b3              BNE      |L10.64|
0000d8  78e0              LDRB     r0,[r4,#3]            ;1333  ; outfireRobotState
0000da  1c40              ADDS     r0,r0,#1              ;1333
0000dc  70e0              STRB     r0,[r4,#3]            ;1333
0000de  e7af              B        |L10.64|
                  |L10.224|
0000e0  7062              STRB     r2,[r4,#1]            ;1337
0000e2  2002              MOVS     r0,#2                 ;1338
0000e4  f7fffffe          BL       calibrationGostraight
0000e8  4809              LDR      r0,|L10.272|
0000ea  6880              LDR      r0,[r0,#8]            ;1339  ; SRF_04_Data1
0000ec  42b8              CMP      r0,r7                 ;1339
0000ee  daa7              BGE      |L10.64|
0000f0  4808              LDR      r0,|L10.276|
0000f2  6880              LDR      r0,[r0,#8]            ;1339  ; SRF_04_Data2
0000f4  42b8              CMP      r0,r7                 ;1339
0000f6  daa3              BGE      |L10.64|
0000f8  7065              STRB     r5,[r4,#1]            ;1340
0000fa  2063              MOVS     r0,#0x63              ;1341
0000fc  70e0              STRB     r0,[r4,#3]            ;1341
0000fe  e79f              B        |L10.64|
;;;1353   void app_returnFromFourthFire(void){
                          ENDP

                  |L10.256|
                          DCD      outfireRobotState
                  |L10.260|
                          DCD      calibrationFinish
                  |L10.264|
                          DCD      0x42200000
                  |L10.268|
                          DCD      SRF_04_Data6
                  |L10.272|
                          DCD      SRF_04_Data1
                  |L10.276|
                          DCD      SRF_04_Data2

                          AREA ||i.returnHome||, CODE, READONLY, ALIGN=1

                  returnHome PROC
;;;1519   
;;;1520   void returnHome(outfireRobotState_t *lastfire){
000000  7e41              LDRB     r1,[r0,#0x19]
;;;1521   	if(lastfire->returnFlag[SIXTH_FIRE] == 1){
000002  2901              CMP      r1,#1
000004  d00d              BEQ      |L11.34|
;;;1522   		app_returnFromSixthFire();
;;;1523   	}else if(lastfire->returnFlag[FOURTH_FIRE] == 1){
000006  7dc1              LDRB     r1,[r0,#0x17]
000008  2901              CMP      r1,#1
00000a  d00c              BEQ      |L11.38|
;;;1524   		app_returnFromFourthFire();
;;;1525   	}else if(lastfire->returnFlag[EIGHTH_FIRE] == 1){
00000c  7ec1              LDRB     r1,[r0,#0x1b]
00000e  2901              CMP      r1,#1
000010  d00b              BEQ      |L11.42|
;;;1526   		app_returnFromEighthFire();
;;;1527   	}else if(lastfire->returnFlag[FIFTH_FIRE] == 1){
000012  7e01              LDRB     r1,[r0,#0x18]
000014  2901              CMP      r1,#1
000016  d00a              BEQ      |L11.46|
;;;1528   		app_returnFromFourthFire();
;;;1529   	}else if(lastfire->returnFlag[SENVENTH_FIRE] == 1){
000018  7e80              LDRB     r0,[r0,#0x1a]
00001a  2801              CMP      r0,#1
00001c  d109              BNE      |L11.50|
;;;1530   		app_returnFromSenventhFire();
00001e  f7ffbffe          B.W      app_returnFromSenventhFire
                  |L11.34|
000022  f7ffbffe          B.W      app_returnFromSixthFire
                  |L11.38|
000026  f7ffbffe          B.W      app_returnFromFourthFire
                  |L11.42|
00002a  f7ffbffe          B.W      app_returnFromEighthFire
                  |L11.46|
00002e  f7ffbffe          B.W      app_returnFromFourthFire
                  |L11.50|
;;;1531   	}
;;;1532   }
000032  4770              BX       lr
;;;1533   
                          ENDP


;*** Start embedded assembler ***

#line 1 "..\\..\\User\\User_App\\app_outfireRobotTwoWork.c"
	AREA ||.rev16_text||, CODE
	THUMB
	EXPORT |__asm___25_app_outfireRobotTwoWork_c_31081d7a____REV16|
#line 114 "..\\..\\Libraries\\CMSIS\\Include\\core_cmInstr.h"
|__asm___25_app_outfireRobotTwoWork_c_31081d7a____REV16| PROC
#line 115

 rev16 r0, r0
 bx lr
	ENDP
	AREA ||.revsh_text||, CODE
	THUMB
	EXPORT |__asm___25_app_outfireRobotTwoWork_c_31081d7a____REVSH|
#line 128
|__asm___25_app_outfireRobotTwoWork_c_31081d7a____REVSH| PROC
#line 129

 revsh r0, r0
 bx lr
	ENDP

;*** End   embedded assembler ***
